---
triple:          'arm64-apple-darwin'
binary-path:     '/Users/liyaodong/Documents/vscode/5/5.1dp'
relocations:
  - { offsetInCU: 0x5AE0, offset: 0x5AE0, size: 0x8, addend: 0x0, symName: __ZNSt3__124__put_character_sequenceB7v160006IcNS_11char_traitsIcEEEERNS_13basic_ostreamIT_T0_EES7_PKS4_m, symObjAddr: 0x3EC4, symBinAddr: 0x100006FCC, symSize: 0x1EC }
  - { offsetInCU: 0x738D, offset: 0x738D, size: 0x8, addend: 0x0, symName: __ZNSt3__1rsB7v160006IcNS_11char_traitsIcEENS_9allocatorIcEEEERNS_13basic_istreamIT_T0_EES9_RNS_12basic_stringIS6_S7_T1_EE, symObjAddr: 0x7A8, symBinAddr: 0x1000038B0, symSize: 0x31C }
  - { offsetInCU: 0x745C, offset: 0x745C, size: 0x8, addend: 0x0, symName: __ZNSt3__1lsB7v160006IcNS_11char_traitsIcEENS_9allocatorIcEEEERNS_13basic_ostreamIT_T0_EES9_RKNS_12basic_stringIS6_S7_T1_EE, symObjAddr: 0xAC4, symBinAddr: 0x100003BCC, symSize: 0x4C }
  - { offsetInCU: 0x74B4, offset: 0x74B4, size: 0x8, addend: 0x0, symName: __ZNSt3__1lsB7v160006INS_11char_traitsIcEEEERNS_13basic_ostreamIcT_EES6_PKc, symObjAddr: 0xB10, symBinAddr: 0x100003C18, symSize: 0x48 }
  - { offsetInCU: 0x74FA, offset: 0x74FA, size: 0x8, addend: 0x0, symName: __ZNSt3__14endlB7v160006IcNS_11char_traitsIcEEEERNS_13basic_ostreamIT_T0_EES7_, symObjAddr: 0xB84, symBinAddr: 0x100003C8C, symSize: 0x58 }
  - { offsetInCU: 0x753A, offset: 0x753A, size: 0x8, addend: 0x0, symName: __ZNSt3__122__make_exception_guardB7v160006INS_6vectorIiNS_9allocatorIiEEE16__destroy_vectorEEENS_28__exception_guard_exceptionsIT_EES7_, symObjAddr: 0xE18, symBinAddr: 0x100003F20, symSize: 0x40 }
  - { offsetInCU: 0x756F, offset: 0x756F, size: 0x8, addend: 0x0, symName: __ZNSt3__119__debug_db_insert_cB7v160006INS_6vectorIiNS_9allocatorIiEEEEEEvPT_, symObjAddr: 0xE8C, symBinAddr: 0x100003F94, symSize: 0x10 }
  - { offsetInCU: 0x75A0, offset: 0x75A0, size: 0x8, addend: 0x0, symName: __ZNSt3__119__allocate_at_leastB7v160006INS_9allocatorIiEEEENS_19__allocation_resultINS_16allocator_traitsIT_E7pointerEEERS5_m, symObjAddr: 0x1214, symBinAddr: 0x10000431C, symSize: 0x40 }
  - { offsetInCU: 0x75E3, offset: 0x75E3, size: 0x8, addend: 0x0, symName: __ZNSt3__13minB7v160006ImEERKT_S3_S3_, symObjAddr: 0x1350, symBinAddr: 0x100004458, symSize: 0x2C }
  - { offsetInCU: 0x7827, offset: 0x7827, size: 0x8, addend: 0x0, symName: __ZNSt3__13minB7v160006ImNS_6__lessImmEEEERKT_S5_S5_T0_, symObjAddr: 0x13E8, symBinAddr: 0x1000044F0, symSize: 0x54 }
  - { offsetInCU: 0x78BC, offset: 0x78BC, size: 0x8, addend: 0x0, symName: __ZNSt3__120__throw_length_errorB7v160006EPKc, symObjAddr: 0x14C4, symBinAddr: 0x1000045CC, symSize: 0x64 }
  - { offsetInCU: 0x78E4, offset: 0x78E4, size: 0x8, addend: 0x0, symName: __ZNSt3__117__libcpp_allocateB7v160006Emm, symObjAddr: 0x1634, symBinAddr: 0x10000473C, symSize: 0x28 }
  - { offsetInCU: 0x7921, offset: 0x7921, size: 0x8, addend: 0x0, symName: __ZNSt3__121__libcpp_operator_newB7v160006IJmEEEPvDpT_, symObjAddr: 0x165C, symBinAddr: 0x100004764, symSize: 0x24 }
  - { offsetInCU: 0x795A, offset: 0x795A, size: 0x8, addend: 0x0, symName: __ZNSt3__112__to_addressB7v160006IiEEPT_S2_, symObjAddr: 0x1778, symBinAddr: 0x100004880, symSize: 0x14 }
  - { offsetInCU: 0x798F, offset: 0x798F, size: 0x8, addend: 0x0, symName: __ZNSt3__118__debug_db_erase_cB7v160006INS_6vectorIiNS_9allocatorIiEEEEEEvPT_, symObjAddr: 0x1AA4, symBinAddr: 0x100004BAC, symSize: 0x10 }
  - { offsetInCU: 0x79C0, offset: 0x79C0, size: 0x8, addend: 0x0, symName: __ZNSt3__119__libcpp_deallocateB7v160006EPvmm, symObjAddr: 0x1C44, symBinAddr: 0x100004D4C, symSize: 0x30 }
  - { offsetInCU: 0x7A08, offset: 0x7A08, size: 0x8, addend: 0x0, symName: __ZNSt3__127__do_deallocate_handle_sizeB7v160006IJEEEvPvmDpT_, symObjAddr: 0x1C74, symBinAddr: 0x100004D7C, symSize: 0x28 }
  - { offsetInCU: 0x7A46, offset: 0x7A46, size: 0x8, addend: 0x0, symName: __ZNSt3__124__libcpp_operator_deleteB7v160006IJPvEEEvDpT_, symObjAddr: 0x1C9C, symBinAddr: 0x100004DA4, symSize: 0x24 }
  - { offsetInCU: 0x7A7B, offset: 0x7A7B, size: 0x8, addend: 0x0, symName: __ZNSt3__122__make_exception_guardB7v160006INS_6vectorINS1_IiNS_9allocatorIiEEEENS2_IS4_EEE16__destroy_vectorEEENS_28__exception_guard_exceptionsIT_EES9_, symObjAddr: 0x1E28, symBinAddr: 0x100004F30, symSize: 0x40 }
  - { offsetInCU: 0x7AB0, offset: 0x7AB0, size: 0x8, addend: 0x0, symName: __ZNSt3__119__debug_db_insert_cB7v160006INS_6vectorINS1_IiNS_9allocatorIiEEEENS2_IS4_EEEEEEvPT_, symObjAddr: 0x1E9C, symBinAddr: 0x100004FA4, symSize: 0x10 }
  - { offsetInCU: 0x7AE1, offset: 0x7AE1, size: 0x8, addend: 0x0, symName: __ZNSt3__119__allocate_at_leastB7v160006INS_9allocatorINS_6vectorIiNS1_IiEEEEEEEENS_19__allocation_resultINS_16allocator_traitsIT_E7pointerEEERS8_m, symObjAddr: 0x2234, symBinAddr: 0x10000533C, symSize: 0x40 }
  - { offsetInCU: 0x7B24, offset: 0x7B24, size: 0x8, addend: 0x0, symName: __ZNSt3__112__to_addressB7v160006INS_6vectorIiNS_9allocatorIiEEEEEEPT_S6_, symObjAddr: 0x257C, symBinAddr: 0x100005684, symSize: 0x14 }
  - { offsetInCU: 0x7B59, offset: 0x7B59, size: 0x8, addend: 0x0, symName: __ZNSt3__130__uninitialized_allocator_copyB7v160006INS_9allocatorIiEEPiS3_S3_EET2_RT_T0_T1_S4_, symObjAddr: 0x2980, symBinAddr: 0x100005A88, symSize: 0xF4 }
  - { offsetInCU: 0x7BF7, offset: 0x7BF7, size: 0x8, addend: 0x0, symName: __ZNSt3__122__make_exception_guardB7v160006INS_29_AllocatorDestroyRangeReverseINS_9allocatorIiEEPiEEEENS_28__exception_guard_exceptionsIT_EES7_, symObjAddr: 0x2A74, symBinAddr: 0x100005B7C, symSize: 0x4C }
  - { offsetInCU: 0x7C2D, offset: 0x7C2D, size: 0x8, addend: 0x0, symName: __ZNSt3__119__allocator_destroyB7v160006INS_9allocatorIiEENS_16reverse_iteratorIPiEES5_EEvRT_T0_T1_, symObjAddr: 0x2CFC, symBinAddr: 0x100005E04, symSize: 0x70 }
  - { offsetInCU: 0x7C90, offset: 0x7C90, size: 0x8, addend: 0x0, symName: __ZNSt3__1neB7v160006IPiS1_EEbRKNS_16reverse_iteratorIT_EERKNS2_IT0_EE, symObjAddr: 0x2DA0, symBinAddr: 0x100005EA8, symSize: 0x48 }
  - { offsetInCU: 0x7CDC, offset: 0x7CDC, size: 0x8, addend: 0x0, symName: __ZNSt3__112__to_addressB7v160006INS_16reverse_iteratorIPiEEvEENS_5decayIDTclsr19__to_address_helperIT_EE6__callclsr3stdE7declvalIRKS5_EEEEE4typeES7_, symObjAddr: 0x2DE8, symBinAddr: 0x100005EF0, symSize: 0x24 }
  - { offsetInCU: 0x7D3B, offset: 0x7D3B, size: 0x8, addend: 0x0, symName: __ZNSt3__118__debug_db_erase_cB7v160006INS_6vectorINS1_IiNS_9allocatorIiEEEENS2_IS4_EEEEEEvPT_, symObjAddr: 0x30D0, symBinAddr: 0x1000061D8, symSize: 0x10 }
  - { offsetInCU: 0x7D6C, offset: 0x7D6C, size: 0x8, addend: 0x0, symName: __ZNSt3__119__debug_db_insert_cB7v160006INS_12basic_stringIcNS_11char_traitsIcEENS_9allocatorIcEEEEEEvPT_, symObjAddr: 0x335C, symBinAddr: 0x100006464, symSize: 0x10 }
  - { offsetInCU: 0x7D9D, offset: 0x7D9D, size: 0x8, addend: 0x0, symName: __ZNSt3__112__to_addressB7v160006IKcEEPT_S3_, symObjAddr: 0x34C8, symBinAddr: 0x1000065D0, symSize: 0x14 }
  - { offsetInCU: 0x83CD, offset: 0x83CD, size: 0x8, addend: 0x0, symName: __ZNSt3__19use_facetB7v160006INS_5ctypeIcEEEERKT_RKNS_6localeE, symObjAddr: 0x3A54, symBinAddr: 0x100006B5C, symSize: 0x2C }
  - { offsetInCU: 0x87AD, offset: 0x87AD, size: 0x8, addend: 0x0, symName: __ZNSt3__125__debug_db_invalidate_allB7v160006INS_12basic_stringIcNS_11char_traitsIcEENS_9allocatorIcEEEEEEvPT_, symObjAddr: 0x3D30, symBinAddr: 0x100006E38, symSize: 0x10 }
  - { offsetInCU: 0x89E0, offset: 0x89E0, size: 0x8, addend: 0x0, symName: __ZNSt3__116__pad_and_outputB7v160006IcNS_11char_traitsIcEEEENS_19ostreambuf_iteratorIT_T0_EES6_PKS4_S8_S8_RNS_8ios_baseES4_, symObjAddr: 0x4100, symBinAddr: 0x100007208, symSize: 0x240 }
  - { offsetInCU: 0x8AAF, offset: 0x8AAF, size: 0x8, addend: 0x0, symName: __ZNSt3__118__constexpr_strlenB7v160006EPKc, symObjAddr: 0x45F0, symBinAddr: 0x1000076F8, symSize: 0x24 }
  - { offsetInCU: 0x8E62, offset: 0x8E62, size: 0x8, addend: 0x0, symName: __ZSt28__throw_bad_array_new_lengthB7v160006v, symObjAddr: 0x1600, symBinAddr: 0x100004708, symSize: 0x34 }
  - { offsetInCU: 0xB5BB, offset: 0xB5BB, size: 0x8, addend: 0x0, symName: __Z19find_max_sub_stringRKNSt3__112basic_stringIcNS_11char_traitsIcEENS_9allocatorIcEEEES7_, symObjAddr: 0x0, symBinAddr: 0x100003108, symSize: 0x454 }
  - { offsetInCU: 0xB6A8, offset: 0xB6A8, size: 0x8, addend: 0x0, symName: __ZNKSt3__112basic_stringIcNS_11char_traitsIcEENS_9allocatorIcEEE6lengthB7v160006Ev, symObjAddr: 0x454, symBinAddr: 0x10000355C, symSize: 0x24 }
  - { offsetInCU: 0xB6CE, offset: 0xB6CE, size: 0x8, addend: 0x0, symName: __ZNSt3__16vectorIiNS_9allocatorIiEEEC1Em, symObjAddr: 0x478, symBinAddr: 0x100003580, symSize: 0x34 }
  - { offsetInCU: 0xB709, offset: 0xB709, size: 0x8, addend: 0x0, symName: __ZNSt3__16vectorINS0_IiNS_9allocatorIiEEEENS1_IS3_EEEC1EmRKS3_, symObjAddr: 0x4AC, symBinAddr: 0x1000035B4, symSize: 0x3C }
  - { offsetInCU: 0xB753, offset: 0xB753, size: 0x8, addend: 0x0, symName: __ZNSt3__16vectorIiNS_9allocatorIiEEED1B7v160006Ev, symObjAddr: 0x4E8, symBinAddr: 0x1000035F0, symSize: 0x2C }
  - { offsetInCU: 0xB77D, offset: 0xB77D, size: 0x8, addend: 0x0, symName: __ZNSt3__112basic_stringIcNS_11char_traitsIcEENS_9allocatorIcEEEC1B7v160006Ev, symObjAddr: 0x514, symBinAddr: 0x10000361C, symSize: 0x2C }
  - { offsetInCU: 0xB7A7, offset: 0xB7A7, size: 0x8, addend: 0x0, symName: __ZNKSt3__112basic_stringIcNS_11char_traitsIcEENS_9allocatorIcEEEixB7v160006Em, symObjAddr: 0x540, symBinAddr: 0x100003648, symSize: 0x30 }
  - { offsetInCU: 0xB7DC, offset: 0xB7DC, size: 0x8, addend: 0x0, symName: __ZNSt3__16vectorINS0_IiNS_9allocatorIiEEEENS1_IS3_EEEixB7v160006Em, symObjAddr: 0x570, symBinAddr: 0x100003678, symSize: 0x2C }
  - { offsetInCU: 0xB813, offset: 0xB813, size: 0x8, addend: 0x0, symName: __ZNSt3__16vectorIiNS_9allocatorIiEEEixB7v160006Em, symObjAddr: 0x59C, symBinAddr: 0x1000036A4, symSize: 0x24 }
  - { offsetInCU: 0xB84A, offset: 0xB84A, size: 0x8, addend: 0x0, symName: __ZNKSt3__112basic_stringIcNS_11char_traitsIcEENS_9allocatorIcEEE6substrB7v160006Emm, symObjAddr: 0x5C0, symBinAddr: 0x1000036C8, symSize: 0x68 }
  - { offsetInCU: 0xB88E, offset: 0xB88E, size: 0x8, addend: 0x0, symName: __ZNSt3__112basic_stringIcNS_11char_traitsIcEENS_9allocatorIcEEEaSB7v160006EOS5_, symObjAddr: 0x628, symBinAddr: 0x100003730, symSize: 0x34 }
  - { offsetInCU: 0xB8C3, offset: 0xB8C3, size: 0x8, addend: 0x0, symName: __ZNSt3__16vectorINS0_IiNS_9allocatorIiEEEENS1_IS3_EEED1B7v160006Ev, symObjAddr: 0x65C, symBinAddr: 0x100003764, symSize: 0x2C }
  - { offsetInCU: 0xB8ED, offset: 0xB8ED, size: 0x8, addend: 0x0, symName: _main, symObjAddr: 0x688, symBinAddr: 0x100003790, symSize: 0x120 }
  - { offsetInCU: 0xB936, offset: 0xB936, size: 0x8, addend: 0x0, symName: __ZNSt3__113basic_ostreamIcNS_11char_traitsIcEEElsB7v160006EPFRS3_S4_E, symObjAddr: 0xB58, symBinAddr: 0x100003C60, symSize: 0x2C }
  - { offsetInCU: 0xB96A, offset: 0xB96A, size: 0x8, addend: 0x0, symName: __ZNKSt3__112basic_stringIcNS_11char_traitsIcEENS_9allocatorIcEEE4sizeB7v160006Ev, symObjAddr: 0xBDC, symBinAddr: 0x100003CE4, symSize: 0x54 }
  - { offsetInCU: 0xB990, offset: 0xB990, size: 0x8, addend: 0x0, symName: __ZNKSt3__112basic_stringIcNS_11char_traitsIcEENS_9allocatorIcEEE9__is_longB7v160006Ev, symObjAddr: 0xC30, symBinAddr: 0x100003D38, symSize: 0x38 }
  - { offsetInCU: 0xB9B6, offset: 0xB9B6, size: 0x8, addend: 0x0, symName: __ZNKSt3__112basic_stringIcNS_11char_traitsIcEENS_9allocatorIcEEE15__get_long_sizeB7v160006Ev, symObjAddr: 0xC68, symBinAddr: 0x100003D70, symSize: 0x28 }
  - { offsetInCU: 0xB9DC, offset: 0xB9DC, size: 0x8, addend: 0x0, symName: __ZNKSt3__112basic_stringIcNS_11char_traitsIcEENS_9allocatorIcEEE16__get_short_sizeB7v160006Ev, symObjAddr: 0xC90, symBinAddr: 0x100003D98, symSize: 0x34 }
  - { offsetInCU: 0xBA02, offset: 0xBA02, size: 0x8, addend: 0x0, symName: __ZNKSt3__117__compressed_pairINS_12basic_stringIcNS_11char_traitsIcEENS_9allocatorIcEEE5__repES5_E5firstB7v160006Ev, symObjAddr: 0xCC4, symBinAddr: 0x100003DCC, symSize: 0x24 }
  - { offsetInCU: 0xBA28, offset: 0xBA28, size: 0x8, addend: 0x0, symName: __ZNKSt3__122__compressed_pair_elemINS_12basic_stringIcNS_11char_traitsIcEENS_9allocatorIcEEE5__repELi0ELb0EE5__getB7v160006Ev, symObjAddr: 0xCE8, symBinAddr: 0x100003DF0, symSize: 0x14 }
  - { offsetInCU: 0xBA4E, offset: 0xBA4E, size: 0x8, addend: 0x0, symName: __ZNSt3__16vectorIiNS_9allocatorIiEEEC2Em, symObjAddr: 0xCFC, symBinAddr: 0x100003E04, symSize: 0xE0 }
  - { offsetInCU: 0xBAA8, offset: 0xBAA8, size: 0x8, addend: 0x0, symName: __ZNSt3__117__compressed_pairIPiNS_9allocatorIiEEEC1B7v160006IDnNS_18__default_init_tagEEEOT_OT0_, symObjAddr: 0xDDC, symBinAddr: 0x100003EE4, symSize: 0x3C }
  - { offsetInCU: 0xBB00, offset: 0xBB00, size: 0x8, addend: 0x0, symName: __ZNSt3__16vectorIiNS_9allocatorIiEEE16__destroy_vectorC1ERS3_, symObjAddr: 0xE58, symBinAddr: 0x100003F60, symSize: 0x34 }
  - { offsetInCU: 0xBB39, offset: 0xBB39, size: 0x8, addend: 0x0, symName: __ZNSt3__16vectorIiNS_9allocatorIiEEE11__vallocateB7v160006Em, symObjAddr: 0xE9C, symBinAddr: 0x100003FA4, symSize: 0xAC }
  - { offsetInCU: 0xBB7D, offset: 0xBB7D, size: 0x8, addend: 0x0, symName: __ZNSt3__16vectorIiNS_9allocatorIiEEE18__construct_at_endEm, symObjAddr: 0xF48, symBinAddr: 0x100004050, symSize: 0xC8 }
  - { offsetInCU: 0xBBF0, offset: 0xBBF0, size: 0x8, addend: 0x0, symName: __ZNSt3__128__exception_guard_exceptionsINS_6vectorIiNS_9allocatorIiEEE16__destroy_vectorEE10__completeB7v160006Ev, symObjAddr: 0x1010, symBinAddr: 0x100004118, symSize: 0x1C }
  - { offsetInCU: 0xBC16, offset: 0xBC16, size: 0x8, addend: 0x0, symName: __ZNSt3__128__exception_guard_exceptionsINS_6vectorIiNS_9allocatorIiEEE16__destroy_vectorEED1B7v160006Ev, symObjAddr: 0x102C, symBinAddr: 0x100004134, symSize: 0x2C }
  - { offsetInCU: 0xBC40, offset: 0xBC40, size: 0x8, addend: 0x0, symName: __ZNSt3__117__compressed_pairIPiNS_9allocatorIiEEEC2B7v160006IDnNS_18__default_init_tagEEEOT_OT0_, symObjAddr: 0x1058, symBinAddr: 0x100004160, symSize: 0x40 }
  - { offsetInCU: 0xBC98, offset: 0xBC98, size: 0x8, addend: 0x0, symName: __ZNSt3__122__compressed_pair_elemIPiLi0ELb0EEC2B7v160006IDnvEEOT_, symObjAddr: 0x1098, symBinAddr: 0x1000041A0, symSize: 0x1C }
  - { offsetInCU: 0xBCDA, offset: 0xBCDA, size: 0x8, addend: 0x0, symName: __ZNSt3__122__compressed_pair_elemINS_9allocatorIiEELi1ELb1EEC2B7v160006ENS_18__default_init_tagE, symObjAddr: 0x10B4, symBinAddr: 0x1000041BC, symSize: 0x2C }
  - { offsetInCU: 0xBD0F, offset: 0xBD0F, size: 0x8, addend: 0x0, symName: __ZNSt3__19allocatorIiEC2B7v160006Ev, symObjAddr: 0x10E0, symBinAddr: 0x1000041E8, symSize: 0x2C }
  - { offsetInCU: 0xBD39, offset: 0xBD39, size: 0x8, addend: 0x0, symName: __ZNSt3__116__non_trivial_ifILb1ENS_9allocatorIiEEEC2B7v160006Ev, symObjAddr: 0x110C, symBinAddr: 0x100004214, symSize: 0x14 }
  - { offsetInCU: 0xBD63, offset: 0xBD63, size: 0x8, addend: 0x0, symName: __ZNSt3__128__exception_guard_exceptionsINS_6vectorIiNS_9allocatorIiEEE16__destroy_vectorEEC1B7v160006ES5_, symObjAddr: 0x1120, symBinAddr: 0x100004228, symSize: 0x34 }
  - { offsetInCU: 0xBD9B, offset: 0xBD9B, size: 0x8, addend: 0x0, symName: __ZNSt3__128__exception_guard_exceptionsINS_6vectorIiNS_9allocatorIiEEE16__destroy_vectorEEC2B7v160006ES5_, symObjAddr: 0x1154, symBinAddr: 0x10000425C, symSize: 0x24 }
  - { offsetInCU: 0xBDD3, offset: 0xBDD3, size: 0x8, addend: 0x0, symName: __ZNSt3__16vectorIiNS_9allocatorIiEEE16__destroy_vectorC2ERS3_, symObjAddr: 0x1178, symBinAddr: 0x100004280, symSize: 0x20 }
  - { offsetInCU: 0xBE0C, offset: 0xBE0C, size: 0x8, addend: 0x0, symName: __ZNKSt3__16vectorIiNS_9allocatorIiEEE8max_sizeEv, symObjAddr: 0x1198, symBinAddr: 0x1000042A0, symSize: 0x60 }
  - { offsetInCU: 0xBE34, offset: 0xBE34, size: 0x8, addend: 0x0, symName: __ZNKSt3__16vectorIiNS_9allocatorIiEEE20__throw_length_errorB7v160006Ev, symObjAddr: 0x11F8, symBinAddr: 0x100004300, symSize: 0x1C }
  - { offsetInCU: 0xBE5A, offset: 0xBE5A, size: 0x8, addend: 0x0, symName: __ZNSt3__16vectorIiNS_9allocatorIiEEE7__allocB7v160006Ev, symObjAddr: 0x1254, symBinAddr: 0x10000435C, symSize: 0x28 }
  - { offsetInCU: 0xBE80, offset: 0xBE80, size: 0x8, addend: 0x0, symName: __ZNSt3__16vectorIiNS_9allocatorIiEEE9__end_capB7v160006Ev, symObjAddr: 0x127C, symBinAddr: 0x100004384, symSize: 0x28 }
  - { offsetInCU: 0xBEA6, offset: 0xBEA6, size: 0x8, addend: 0x0, symName: __ZNKSt3__16vectorIiNS_9allocatorIiEEE14__annotate_newB7v160006Em, symObjAddr: 0x12A4, symBinAddr: 0x1000043AC, symSize: 0xAC }
  - { offsetInCU: 0xBEE5, offset: 0xBEE5, size: 0x8, addend: 0x0, symName: __ZNSt3__116allocator_traitsINS_9allocatorIiEEE8max_sizeB7v160006IS2_vEEmRKS2_, symObjAddr: 0x137C, symBinAddr: 0x100004484, symSize: 0x24 }
  - { offsetInCU: 0xBF13, offset: 0xBF13, size: 0x8, addend: 0x0, symName: __ZNKSt3__16vectorIiNS_9allocatorIiEEE7__allocB7v160006Ev, symObjAddr: 0x13A0, symBinAddr: 0x1000044A8, symSize: 0x28 }
  - { offsetInCU: 0xBF39, offset: 0xBF39, size: 0x8, addend: 0x0, symName: __ZNSt3__114numeric_limitsIlE3maxB7v160006Ev, symObjAddr: 0x13C8, symBinAddr: 0x1000044D0, symSize: 0x14 }
  - { offsetInCU: 0xBF61, offset: 0xBF61, size: 0x8, addend: 0x0, symName: __ZNKSt3__16__lessImmEclB7v160006ERKmS3_, symObjAddr: 0x143C, symBinAddr: 0x100004544, symSize: 0x34 }
  - { offsetInCU: 0xBFA3, offset: 0xBFA3, size: 0x8, addend: 0x0, symName: __ZNKSt3__19allocatorIiE8max_sizeB7v160006Ev, symObjAddr: 0x1470, symBinAddr: 0x100004578, symSize: 0x14 }
  - { offsetInCU: 0xBFC9, offset: 0xBFC9, size: 0x8, addend: 0x0, symName: __ZNKSt3__117__compressed_pairIPiNS_9allocatorIiEEE6secondB7v160006Ev, symObjAddr: 0x1484, symBinAddr: 0x10000458C, symSize: 0x24 }
  - { offsetInCU: 0xBFEF, offset: 0xBFEF, size: 0x8, addend: 0x0, symName: __ZNKSt3__122__compressed_pair_elemINS_9allocatorIiEELi1ELb1EE5__getB7v160006Ev, symObjAddr: 0x14A8, symBinAddr: 0x1000045B0, symSize: 0x14 }
  - { offsetInCU: 0xC015, offset: 0xC015, size: 0x8, addend: 0x0, symName: __ZNSt3__123__libcpp_numeric_limitsIlLb1EE3maxB7v160006Ev, symObjAddr: 0x14BC, symBinAddr: 0x1000045C4, symSize: 0x8 }
  - { offsetInCU: 0xC029, offset: 0xC029, size: 0x8, addend: 0x0, symName: __ZNSt12length_errorC1B7v160006EPKc, symObjAddr: 0x1528, symBinAddr: 0x100004630, symSize: 0x34 }
  - { offsetInCU: 0xC061, offset: 0xC061, size: 0x8, addend: 0x0, symName: __ZNSt12length_errorC2B7v160006EPKc, symObjAddr: 0x155C, symBinAddr: 0x100004664, symSize: 0x4C }
  - { offsetInCU: 0xC099, offset: 0xC099, size: 0x8, addend: 0x0, symName: __ZNSt3__19allocatorIiE8allocateB7v160006Em, symObjAddr: 0x15A8, symBinAddr: 0x1000046B0, symSize: 0x58 }
  - { offsetInCU: 0xC0CD, offset: 0xC0CD, size: 0x8, addend: 0x0, symName: __ZNSt3__117__compressed_pairIPiNS_9allocatorIiEEE6secondB7v160006Ev, symObjAddr: 0x1680, symBinAddr: 0x100004788, symSize: 0x24 }
  - { offsetInCU: 0xC0F3, offset: 0xC0F3, size: 0x8, addend: 0x0, symName: __ZNSt3__122__compressed_pair_elemINS_9allocatorIiEELi1ELb1EE5__getB7v160006Ev, symObjAddr: 0x16A4, symBinAddr: 0x1000047AC, symSize: 0x14 }
  - { offsetInCU: 0xC119, offset: 0xC119, size: 0x8, addend: 0x0, symName: __ZNSt3__117__compressed_pairIPiNS_9allocatorIiEEE5firstB7v160006Ev, symObjAddr: 0x16B8, symBinAddr: 0x1000047C0, symSize: 0x24 }
  - { offsetInCU: 0xC13F, offset: 0xC13F, size: 0x8, addend: 0x0, symName: __ZNSt3__122__compressed_pair_elemIPiLi0ELb0EE5__getB7v160006Ev, symObjAddr: 0x16DC, symBinAddr: 0x1000047E4, symSize: 0x14 }
  - { offsetInCU: 0xC165, offset: 0xC165, size: 0x8, addend: 0x0, symName: __ZNKSt3__16vectorIiNS_9allocatorIiEEE31__annotate_contiguous_containerB7v160006EPKvS5_S5_S5_, symObjAddr: 0x16F0, symBinAddr: 0x1000047F8, symSize: 0x20 }
  - { offsetInCU: 0xC1BB, offset: 0xC1BB, size: 0x8, addend: 0x0, symName: __ZNKSt3__16vectorIiNS_9allocatorIiEEE4dataB7v160006Ev, symObjAddr: 0x1710, symBinAddr: 0x100004818, symSize: 0x28 }
  - { offsetInCU: 0xC1E1, offset: 0xC1E1, size: 0x8, addend: 0x0, symName: __ZNKSt3__16vectorIiNS_9allocatorIiEEE8capacityB7v160006Ev, symObjAddr: 0x1738, symBinAddr: 0x100004840, symSize: 0x40 }
  - { offsetInCU: 0xC207, offset: 0xC207, size: 0x8, addend: 0x0, symName: __ZNKSt3__16vectorIiNS_9allocatorIiEEE9__end_capB7v160006Ev, symObjAddr: 0x178C, symBinAddr: 0x100004894, symSize: 0x28 }
  - { offsetInCU: 0xC22D, offset: 0xC22D, size: 0x8, addend: 0x0, symName: __ZNKSt3__117__compressed_pairIPiNS_9allocatorIiEEE5firstB7v160006Ev, symObjAddr: 0x17B4, symBinAddr: 0x1000048BC, symSize: 0x24 }
  - { offsetInCU: 0xC253, offset: 0xC253, size: 0x8, addend: 0x0, symName: __ZNKSt3__122__compressed_pair_elemIPiLi0ELb0EE5__getB7v160006Ev, symObjAddr: 0x17D8, symBinAddr: 0x1000048E0, symSize: 0x14 }
  - { offsetInCU: 0xC292, offset: 0xC292, size: 0x8, addend: 0x0, symName: __ZNSt3__16vectorIiNS_9allocatorIiEEE21_ConstructTransactionC1B7v160006ERS3_m, symObjAddr: 0x17EC, symBinAddr: 0x1000048F4, symSize: 0x3C }
  - { offsetInCU: 0xC2DA, offset: 0xC2DA, size: 0x8, addend: 0x0, symName: __ZNSt3__116allocator_traitsINS_9allocatorIiEEE9constructB7v160006IiJEvEEvRS2_PT_DpOT0_, symObjAddr: 0x1828, symBinAddr: 0x100004930, symSize: 0x2C }
  - { offsetInCU: 0xC31C, offset: 0xC31C, size: 0x8, addend: 0x0, symName: __ZNSt3__16vectorIiNS_9allocatorIiEEE21_ConstructTransactionD1B7v160006Ev, symObjAddr: 0x1854, symBinAddr: 0x10000495C, symSize: 0x2C }
  - { offsetInCU: 0xC346, offset: 0xC346, size: 0x8, addend: 0x0, symName: __ZNSt3__16vectorIiNS_9allocatorIiEEE21_ConstructTransactionC2B7v160006ERS3_m, symObjAddr: 0x1880, symBinAddr: 0x100004988, symSize: 0x44 }
  - { offsetInCU: 0xC38E, offset: 0xC38E, size: 0x8, addend: 0x0, symName: __ZNSt3__19allocatorIiE9constructB7v160006IiJEEEvPT_DpOT0_, symObjAddr: 0x18C4, symBinAddr: 0x1000049CC, symSize: 0x1C }
  - { offsetInCU: 0xC3D0, offset: 0xC3D0, size: 0x8, addend: 0x0, symName: __ZNSt3__16vectorIiNS_9allocatorIiEEE21_ConstructTransactionD2B7v160006Ev, symObjAddr: 0x18E0, symBinAddr: 0x1000049E8, symSize: 0x20 }
  - { offsetInCU: 0xC3FA, offset: 0xC3FA, size: 0x8, addend: 0x0, symName: __ZNSt3__128__exception_guard_exceptionsINS_6vectorIiNS_9allocatorIiEEE16__destroy_vectorEED2B7v160006Ev, symObjAddr: 0x1900, symBinAddr: 0x100004A08, symSize: 0x50 }
  - { offsetInCU: 0xC424, offset: 0xC424, size: 0x8, addend: 0x0, symName: __ZNSt3__16vectorIiNS_9allocatorIiEEE16__destroy_vectorclB7v160006Ev, symObjAddr: 0x1950, symBinAddr: 0x100004A58, symSize: 0x9C }
  - { offsetInCU: 0xC44A, offset: 0xC44A, size: 0x8, addend: 0x0, symName: __ZNKSt3__16vectorIiNS_9allocatorIiEEE17__annotate_deleteB7v160006Ev, symObjAddr: 0x19EC, symBinAddr: 0x100004AF4, symSize: 0xB8 }
  - { offsetInCU: 0xC470, offset: 0xC470, size: 0x8, addend: 0x0, symName: __ZNSt3__16vectorIiNS_9allocatorIiEEE7__clearB7v160006Ev, symObjAddr: 0x1AB4, symBinAddr: 0x100004BBC, symSize: 0x28 }
  - { offsetInCU: 0xC496, offset: 0xC496, size: 0x8, addend: 0x0, symName: __ZNSt3__116allocator_traitsINS_9allocatorIiEEE10deallocateB7v160006ERS2_Pim, symObjAddr: 0x1ADC, symBinAddr: 0x100004BE4, symSize: 0x34 }
  - { offsetInCU: 0xC4D8, offset: 0xC4D8, size: 0x8, addend: 0x0, symName: __ZNKSt3__16vectorIiNS_9allocatorIiEEE4sizeB7v160006Ev, symObjAddr: 0x1B10, symBinAddr: 0x100004C18, symSize: 0x28 }
  - { offsetInCU: 0xC4FE, offset: 0xC4FE, size: 0x8, addend: 0x0, symName: __ZNSt3__16vectorIiNS_9allocatorIiEEE22__base_destruct_at_endB7v160006EPi, symObjAddr: 0x1B38, symBinAddr: 0x100004C40, symSize: 0x8C }
  - { offsetInCU: 0xC542, offset: 0xC542, size: 0x8, addend: 0x0, symName: __ZNSt3__116allocator_traitsINS_9allocatorIiEEE7destroyB7v160006IivEEvRS2_PT_, symObjAddr: 0x1BC4, symBinAddr: 0x100004CCC, symSize: 0x2C }
  - { offsetInCU: 0xC57F, offset: 0xC57F, size: 0x8, addend: 0x0, symName: __ZNSt3__19allocatorIiE7destroyB7v160006EPi, symObjAddr: 0x1BF0, symBinAddr: 0x100004CF8, symSize: 0x14 }
  - { offsetInCU: 0xC5B3, offset: 0xC5B3, size: 0x8, addend: 0x0, symName: __ZNSt3__19allocatorIiE10deallocateB7v160006EPim, symObjAddr: 0x1C04, symBinAddr: 0x100004D0C, symSize: 0x40 }
  - { offsetInCU: 0xC5F5, offset: 0xC5F5, size: 0x8, addend: 0x0, symName: __ZNSt3__16vectorIiNS_9allocatorIiEEED2B7v160006Ev, symObjAddr: 0x1CC0, symBinAddr: 0x100004DC8, symSize: 0x44 }
  - { offsetInCU: 0xC61F, offset: 0xC61F, size: 0x8, addend: 0x0, symName: __ZNSt3__16vectorINS0_IiNS_9allocatorIiEEEENS1_IS3_EEEC2EmRKS3_, symObjAddr: 0x1D04, symBinAddr: 0x100004E0C, symSize: 0xE8 }
  - { offsetInCU: 0xC67E, offset: 0xC67E, size: 0x8, addend: 0x0, symName: __ZNSt3__117__compressed_pairIPNS_6vectorIiNS_9allocatorIiEEEENS2_IS4_EEEC1B7v160006IDnNS_18__default_init_tagEEEOT_OT0_, symObjAddr: 0x1DEC, symBinAddr: 0x100004EF4, symSize: 0x3C }
  - { offsetInCU: 0xC6D6, offset: 0xC6D6, size: 0x8, addend: 0x0, symName: __ZNSt3__16vectorINS0_IiNS_9allocatorIiEEEENS1_IS3_EEE16__destroy_vectorC1ERS5_, symObjAddr: 0x1E68, symBinAddr: 0x100004F70, symSize: 0x34 }
  - { offsetInCU: 0xC70F, offset: 0xC70F, size: 0x8, addend: 0x0, symName: __ZNSt3__16vectorINS0_IiNS_9allocatorIiEEEENS1_IS3_EEE11__vallocateB7v160006Em, symObjAddr: 0x1EAC, symBinAddr: 0x100004FB4, symSize: 0xB4 }
  - { offsetInCU: 0xC753, offset: 0xC753, size: 0x8, addend: 0x0, symName: __ZNSt3__16vectorINS0_IiNS_9allocatorIiEEEENS1_IS3_EEE18__construct_at_endEmRKS3_, symObjAddr: 0x1F60, symBinAddr: 0x100005068, symSize: 0xD0 }
  - { offsetInCU: 0xC7D5, offset: 0xC7D5, size: 0x8, addend: 0x0, symName: __ZNSt3__128__exception_guard_exceptionsINS_6vectorINS1_IiNS_9allocatorIiEEEENS2_IS4_EEE16__destroy_vectorEE10__completeB7v160006Ev, symObjAddr: 0x2030, symBinAddr: 0x100005138, symSize: 0x1C }
  - { offsetInCU: 0xC7FB, offset: 0xC7FB, size: 0x8, addend: 0x0, symName: __ZNSt3__128__exception_guard_exceptionsINS_6vectorINS1_IiNS_9allocatorIiEEEENS2_IS4_EEE16__destroy_vectorEED1B7v160006Ev, symObjAddr: 0x204C, symBinAddr: 0x100005154, symSize: 0x2C }
  - { offsetInCU: 0xC825, offset: 0xC825, size: 0x8, addend: 0x0, symName: __ZNSt3__117__compressed_pairIPNS_6vectorIiNS_9allocatorIiEEEENS2_IS4_EEEC2B7v160006IDnNS_18__default_init_tagEEEOT_OT0_, symObjAddr: 0x2078, symBinAddr: 0x100005180, symSize: 0x40 }
  - { offsetInCU: 0xC87D, offset: 0xC87D, size: 0x8, addend: 0x0, symName: __ZNSt3__122__compressed_pair_elemIPNS_6vectorIiNS_9allocatorIiEEEELi0ELb0EEC2B7v160006IDnvEEOT_, symObjAddr: 0x20B8, symBinAddr: 0x1000051C0, symSize: 0x1C }
  - { offsetInCU: 0xC8BF, offset: 0xC8BF, size: 0x8, addend: 0x0, symName: __ZNSt3__122__compressed_pair_elemINS_9allocatorINS_6vectorIiNS1_IiEEEEEELi1ELb1EEC2B7v160006ENS_18__default_init_tagE, symObjAddr: 0x20D4, symBinAddr: 0x1000051DC, symSize: 0x2C }
  - { offsetInCU: 0xC8F4, offset: 0xC8F4, size: 0x8, addend: 0x0, symName: __ZNSt3__19allocatorINS_6vectorIiNS0_IiEEEEEC2B7v160006Ev, symObjAddr: 0x2100, symBinAddr: 0x100005208, symSize: 0x2C }
  - { offsetInCU: 0xC91E, offset: 0xC91E, size: 0x8, addend: 0x0, symName: __ZNSt3__116__non_trivial_ifILb1ENS_9allocatorINS_6vectorIiNS1_IiEEEEEEEC2B7v160006Ev, symObjAddr: 0x212C, symBinAddr: 0x100005234, symSize: 0x14 }
  - { offsetInCU: 0xC948, offset: 0xC948, size: 0x8, addend: 0x0, symName: __ZNSt3__128__exception_guard_exceptionsINS_6vectorINS1_IiNS_9allocatorIiEEEENS2_IS4_EEE16__destroy_vectorEEC1B7v160006ES7_, symObjAddr: 0x2140, symBinAddr: 0x100005248, symSize: 0x34 }
  - { offsetInCU: 0xC980, offset: 0xC980, size: 0x8, addend: 0x0, symName: __ZNSt3__128__exception_guard_exceptionsINS_6vectorINS1_IiNS_9allocatorIiEEEENS2_IS4_EEE16__destroy_vectorEEC2B7v160006ES7_, symObjAddr: 0x2174, symBinAddr: 0x10000527C, symSize: 0x24 }
  - { offsetInCU: 0xC9B8, offset: 0xC9B8, size: 0x8, addend: 0x0, symName: __ZNSt3__16vectorINS0_IiNS_9allocatorIiEEEENS1_IS3_EEE16__destroy_vectorC2ERS5_, symObjAddr: 0x2198, symBinAddr: 0x1000052A0, symSize: 0x20 }
  - { offsetInCU: 0xC9F1, offset: 0xC9F1, size: 0x8, addend: 0x0, symName: __ZNKSt3__16vectorINS0_IiNS_9allocatorIiEEEENS1_IS3_EEE8max_sizeEv, symObjAddr: 0x21B8, symBinAddr: 0x1000052C0, symSize: 0x60 }
  - { offsetInCU: 0xCA19, offset: 0xCA19, size: 0x8, addend: 0x0, symName: __ZNKSt3__16vectorINS0_IiNS_9allocatorIiEEEENS1_IS3_EEE20__throw_length_errorB7v160006Ev, symObjAddr: 0x2218, symBinAddr: 0x100005320, symSize: 0x1C }
  - { offsetInCU: 0xCA3F, offset: 0xCA3F, size: 0x8, addend: 0x0, symName: __ZNSt3__16vectorINS0_IiNS_9allocatorIiEEEENS1_IS3_EEE7__allocB7v160006Ev, symObjAddr: 0x2274, symBinAddr: 0x10000537C, symSize: 0x28 }
  - { offsetInCU: 0xCA65, offset: 0xCA65, size: 0x8, addend: 0x0, symName: __ZNSt3__16vectorINS0_IiNS_9allocatorIiEEEENS1_IS3_EEE9__end_capB7v160006Ev, symObjAddr: 0x229C, symBinAddr: 0x1000053A4, symSize: 0x28 }
  - { offsetInCU: 0xCA8B, offset: 0xCA8B, size: 0x8, addend: 0x0, symName: __ZNKSt3__16vectorINS0_IiNS_9allocatorIiEEEENS1_IS3_EEE14__annotate_newB7v160006Em, symObjAddr: 0x22C4, symBinAddr: 0x1000053CC, symSize: 0xC8 }
  - { offsetInCU: 0xCACA, offset: 0xCACA, size: 0x8, addend: 0x0, symName: __ZNSt3__116allocator_traitsINS_9allocatorINS_6vectorIiNS1_IiEEEEEEE8max_sizeB7v160006IS5_vEEmRKS5_, symObjAddr: 0x238C, symBinAddr: 0x100005494, symSize: 0x24 }
  - { offsetInCU: 0xCAF8, offset: 0xCAF8, size: 0x8, addend: 0x0, symName: __ZNKSt3__16vectorINS0_IiNS_9allocatorIiEEEENS1_IS3_EEE7__allocB7v160006Ev, symObjAddr: 0x23B0, symBinAddr: 0x1000054B8, symSize: 0x28 }
  - { offsetInCU: 0xCB1E, offset: 0xCB1E, size: 0x8, addend: 0x0, symName: __ZNKSt3__19allocatorINS_6vectorIiNS0_IiEEEEE8max_sizeB7v160006Ev, symObjAddr: 0x23D8, symBinAddr: 0x1000054E0, symSize: 0x18 }
  - { offsetInCU: 0xCB44, offset: 0xCB44, size: 0x8, addend: 0x0, symName: __ZNKSt3__117__compressed_pairIPNS_6vectorIiNS_9allocatorIiEEEENS2_IS4_EEE6secondB7v160006Ev, symObjAddr: 0x23F0, symBinAddr: 0x1000054F8, symSize: 0x24 }
  - { offsetInCU: 0xCB6A, offset: 0xCB6A, size: 0x8, addend: 0x0, symName: __ZNKSt3__122__compressed_pair_elemINS_9allocatorINS_6vectorIiNS1_IiEEEEEELi1ELb1EE5__getB7v160006Ev, symObjAddr: 0x2414, symBinAddr: 0x10000551C, symSize: 0x14 }
  - { offsetInCU: 0xCB90, offset: 0xCB90, size: 0x8, addend: 0x0, symName: __ZNSt3__19allocatorINS_6vectorIiNS0_IiEEEEE8allocateB7v160006Em, symObjAddr: 0x2428, symBinAddr: 0x100005530, symSize: 0x5C }
  - { offsetInCU: 0xCBC4, offset: 0xCBC4, size: 0x8, addend: 0x0, symName: __ZNSt3__117__compressed_pairIPNS_6vectorIiNS_9allocatorIiEEEENS2_IS4_EEE6secondB7v160006Ev, symObjAddr: 0x2484, symBinAddr: 0x10000558C, symSize: 0x24 }
  - { offsetInCU: 0xCBEA, offset: 0xCBEA, size: 0x8, addend: 0x0, symName: __ZNSt3__122__compressed_pair_elemINS_9allocatorINS_6vectorIiNS1_IiEEEEEELi1ELb1EE5__getB7v160006Ev, symObjAddr: 0x24A8, symBinAddr: 0x1000055B0, symSize: 0x14 }
  - { offsetInCU: 0xCC10, offset: 0xCC10, size: 0x8, addend: 0x0, symName: __ZNSt3__117__compressed_pairIPNS_6vectorIiNS_9allocatorIiEEEENS2_IS4_EEE5firstB7v160006Ev, symObjAddr: 0x24BC, symBinAddr: 0x1000055C4, symSize: 0x24 }
  - { offsetInCU: 0xCC36, offset: 0xCC36, size: 0x8, addend: 0x0, symName: __ZNSt3__122__compressed_pair_elemIPNS_6vectorIiNS_9allocatorIiEEEELi0ELb0EE5__getB7v160006Ev, symObjAddr: 0x24E0, symBinAddr: 0x1000055E8, symSize: 0x14 }
  - { offsetInCU: 0xCC5C, offset: 0xCC5C, size: 0x8, addend: 0x0, symName: __ZNKSt3__16vectorINS0_IiNS_9allocatorIiEEEENS1_IS3_EEE31__annotate_contiguous_containerB7v160006EPKvS7_S7_S7_, symObjAddr: 0x24F4, symBinAddr: 0x1000055FC, symSize: 0x20 }
  - { offsetInCU: 0xCCB2, offset: 0xCCB2, size: 0x8, addend: 0x0, symName: __ZNKSt3__16vectorINS0_IiNS_9allocatorIiEEEENS1_IS3_EEE4dataB7v160006Ev, symObjAddr: 0x2514, symBinAddr: 0x10000561C, symSize: 0x28 }
  - { offsetInCU: 0xCCD8, offset: 0xCCD8, size: 0x8, addend: 0x0, symName: __ZNKSt3__16vectorINS0_IiNS_9allocatorIiEEEENS1_IS3_EEE8capacityB7v160006Ev, symObjAddr: 0x253C, symBinAddr: 0x100005644, symSize: 0x40 }
  - { offsetInCU: 0xCCFE, offset: 0xCCFE, size: 0x8, addend: 0x0, symName: __ZNKSt3__16vectorINS0_IiNS_9allocatorIiEEEENS1_IS3_EEE9__end_capB7v160006Ev, symObjAddr: 0x2590, symBinAddr: 0x100005698, symSize: 0x28 }
  - { offsetInCU: 0xCD24, offset: 0xCD24, size: 0x8, addend: 0x0, symName: __ZNKSt3__117__compressed_pairIPNS_6vectorIiNS_9allocatorIiEEEENS2_IS4_EEE5firstB7v160006Ev, symObjAddr: 0x25B8, symBinAddr: 0x1000056C0, symSize: 0x24 }
  - { offsetInCU: 0xCD4A, offset: 0xCD4A, size: 0x8, addend: 0x0, symName: __ZNKSt3__122__compressed_pair_elemIPNS_6vectorIiNS_9allocatorIiEEEELi0ELb0EE5__getB7v160006Ev, symObjAddr: 0x25DC, symBinAddr: 0x1000056E4, symSize: 0x14 }
  - { offsetInCU: 0xCD89, offset: 0xCD89, size: 0x8, addend: 0x0, symName: __ZNSt3__16vectorINS0_IiNS_9allocatorIiEEEENS1_IS3_EEE21_ConstructTransactionC1B7v160006ERS5_m, symObjAddr: 0x25F0, symBinAddr: 0x1000056F8, symSize: 0x3C }
  - { offsetInCU: 0xCDD1, offset: 0xCDD1, size: 0x8, addend: 0x0, symName: __ZNSt3__116allocator_traitsINS_9allocatorINS_6vectorIiNS1_IiEEEEEEE9constructB7v160006IS4_JRKS4_EvEEvRS5_PT_DpOT0_, symObjAddr: 0x262C, symBinAddr: 0x100005734, symSize: 0x34 }
  - { offsetInCU: 0xCE28, offset: 0xCE28, size: 0x8, addend: 0x0, symName: __ZNSt3__16vectorINS0_IiNS_9allocatorIiEEEENS1_IS3_EEE21_ConstructTransactionD1B7v160006Ev, symObjAddr: 0x2660, symBinAddr: 0x100005768, symSize: 0x2C }
  - { offsetInCU: 0xCE52, offset: 0xCE52, size: 0x8, addend: 0x0, symName: __ZNSt3__16vectorINS0_IiNS_9allocatorIiEEEENS1_IS3_EEE21_ConstructTransactionC2B7v160006ERS5_m, symObjAddr: 0x268C, symBinAddr: 0x100005794, symSize: 0x4C }
  - { offsetInCU: 0xCE9A, offset: 0xCE9A, size: 0x8, addend: 0x0, symName: __ZNSt3__19allocatorINS_6vectorIiNS0_IiEEEEE9constructB7v160006IS3_JRKS3_EEEvPT_DpOT0_, symObjAddr: 0x26D8, symBinAddr: 0x1000057E0, symSize: 0x30 }
  - { offsetInCU: 0xCEF0, offset: 0xCEF0, size: 0x8, addend: 0x0, symName: __ZNSt3__16vectorIiNS_9allocatorIiEEEC1ERKS3_, symObjAddr: 0x2708, symBinAddr: 0x100005810, symSize: 0x34 }
  - { offsetInCU: 0xCF2B, offset: 0xCF2B, size: 0x8, addend: 0x0, symName: __ZNSt3__16vectorIiNS_9allocatorIiEEEC2ERKS3_, symObjAddr: 0x273C, symBinAddr: 0x100005844, symSize: 0x110 }
  - { offsetInCU: 0xCF8A, offset: 0xCF8A, size: 0x8, addend: 0x0, symName: __ZNSt3__116allocator_traitsINS_9allocatorIiEEE37select_on_container_copy_constructionB7v160006IS2_vvEES2_RKS2_, symObjAddr: 0x284C, symBinAddr: 0x100005954, symSize: 0x10 }
  - { offsetInCU: 0xCFBE, offset: 0xCFBE, size: 0x8, addend: 0x0, symName: __ZNSt3__117__compressed_pairIPiNS_9allocatorIiEEEC1B7v160006IDnS3_EEOT_OT0_, symObjAddr: 0x285C, symBinAddr: 0x100005964, symSize: 0x3C }
  - { offsetInCU: 0xD016, offset: 0xD016, size: 0x8, addend: 0x0, symName: __ZNSt3__16vectorIiNS_9allocatorIiEEE18__construct_at_endIPiLi0EEEvT_S6_m, symObjAddr: 0x2898, symBinAddr: 0x1000059A0, symSize: 0x8C }
  - { offsetInCU: 0xD089, offset: 0xD089, size: 0x8, addend: 0x0, symName: __ZNSt3__117__compressed_pairIPiNS_9allocatorIiEEEC2B7v160006IDnS3_EEOT_OT0_, symObjAddr: 0x2924, symBinAddr: 0x100005A2C, symSize: 0x44 }
  - { offsetInCU: 0xD0E1, offset: 0xD0E1, size: 0x8, addend: 0x0, symName: __ZNSt3__122__compressed_pair_elemINS_9allocatorIiEELi1ELb1EEC2B7v160006IS2_vEEOT_, symObjAddr: 0x2968, symBinAddr: 0x100005A70, symSize: 0x18 }
  - { offsetInCU: 0xD123, offset: 0xD123, size: 0x8, addend: 0x0, symName: __ZNSt3__129_AllocatorDestroyRangeReverseINS_9allocatorIiEEPiEC1B7v160006ERS2_RS3_S6_, symObjAddr: 0x2AC0, symBinAddr: 0x100005BC8, symSize: 0x44 }
  - { offsetInCU: 0xD17A, offset: 0xD17A, size: 0x8, addend: 0x0, symName: __ZNSt3__116allocator_traitsINS_9allocatorIiEEE9constructB7v160006IiJRiEvEEvRS2_PT_DpOT0_, symObjAddr: 0x2B04, symBinAddr: 0x100005C0C, symSize: 0x34 }
  - { offsetInCU: 0xD1D1, offset: 0xD1D1, size: 0x8, addend: 0x0, symName: __ZNSt3__128__exception_guard_exceptionsINS_29_AllocatorDestroyRangeReverseINS_9allocatorIiEEPiEEE10__completeB7v160006Ev, symObjAddr: 0x2B38, symBinAddr: 0x100005C40, symSize: 0x1C }
  - { offsetInCU: 0xD1F7, offset: 0xD1F7, size: 0x8, addend: 0x0, symName: __ZNSt3__128__exception_guard_exceptionsINS_29_AllocatorDestroyRangeReverseINS_9allocatorIiEEPiEEED1B7v160006Ev, symObjAddr: 0x2B54, symBinAddr: 0x100005C5C, symSize: 0x2C }
  - { offsetInCU: 0xD221, offset: 0xD221, size: 0x8, addend: 0x0, symName: __ZNSt3__128__exception_guard_exceptionsINS_29_AllocatorDestroyRangeReverseINS_9allocatorIiEEPiEEEC1B7v160006ES5_, symObjAddr: 0x2B80, symBinAddr: 0x100005C88, symSize: 0x34 }
  - { offsetInCU: 0xD25A, offset: 0xD25A, size: 0x8, addend: 0x0, symName: __ZNSt3__128__exception_guard_exceptionsINS_29_AllocatorDestroyRangeReverseINS_9allocatorIiEEPiEEEC2B7v160006ES5_, symObjAddr: 0x2BB4, symBinAddr: 0x100005CBC, symSize: 0x30 }
  - { offsetInCU: 0xD293, offset: 0xD293, size: 0x8, addend: 0x0, symName: __ZNSt3__129_AllocatorDestroyRangeReverseINS_9allocatorIiEEPiEC2B7v160006ERS2_RS3_S6_, symObjAddr: 0x2BE4, symBinAddr: 0x100005CEC, symSize: 0x38 }
  - { offsetInCU: 0xD2EA, offset: 0xD2EA, size: 0x8, addend: 0x0, symName: __ZNSt3__19allocatorIiE9constructB7v160006IiJRiEEEvPT_DpOT0_, symObjAddr: 0x2C1C, symBinAddr: 0x100005D24, symSize: 0x28 }
  - { offsetInCU: 0xD340, offset: 0xD340, size: 0x8, addend: 0x0, symName: __ZNSt3__128__exception_guard_exceptionsINS_29_AllocatorDestroyRangeReverseINS_9allocatorIiEEPiEEED2B7v160006Ev, symObjAddr: 0x2C44, symBinAddr: 0x100005D4C, symSize: 0x50 }
  - { offsetInCU: 0xD36A, offset: 0xD36A, size: 0x8, addend: 0x0, symName: __ZNKSt3__129_AllocatorDestroyRangeReverseINS_9allocatorIiEEPiEclB7v160006Ev, symObjAddr: 0x2C94, symBinAddr: 0x100005D9C, symSize: 0x68 }
  - { offsetInCU: 0xD390, offset: 0xD390, size: 0x8, addend: 0x0, symName: __ZNSt3__116reverse_iteratorIPiEC1B7v160006ES1_, symObjAddr: 0x2D6C, symBinAddr: 0x100005E74, symSize: 0x34 }
  - { offsetInCU: 0xD3C8, offset: 0xD3C8, size: 0x8, addend: 0x0, symName: __ZNSt3__116reverse_iteratorIPiEppB7v160006Ev, symObjAddr: 0x2E0C, symBinAddr: 0x100005F14, symSize: 0x20 }
  - { offsetInCU: 0xD3EE, offset: 0xD3EE, size: 0x8, addend: 0x0, symName: __ZNKSt3__116reverse_iteratorIPiE4baseB7v160006Ev, symObjAddr: 0x2E2C, symBinAddr: 0x100005F34, symSize: 0x18 }
  - { offsetInCU: 0xD419, offset: 0xD419, size: 0x8, addend: 0x0, symName: __ZNSt3__119__to_address_helperINS_16reverse_iteratorIPiEEvE6__callB7v160006ERKS3_, symObjAddr: 0x2E44, symBinAddr: 0x100005F4C, symSize: 0x38 }
  - { offsetInCU: 0xD43C, offset: 0xD43C, size: 0x8, addend: 0x0, symName: __ZNKSt3__116reverse_iteratorIPiEptB7v160006Ev, symObjAddr: 0x2E7C, symBinAddr: 0x100005F84, symSize: 0x24 }
  - { offsetInCU: 0xD462, offset: 0xD462, size: 0x8, addend: 0x0, symName: __ZNKSt3__116reverse_iteratorIPiEdeB7v160006Ev, symObjAddr: 0x2EA0, symBinAddr: 0x100005FA8, symSize: 0x28 }
  - { offsetInCU: 0xD497, offset: 0xD497, size: 0x8, addend: 0x0, symName: __ZNSt3__116reverse_iteratorIPiEC2B7v160006ES1_, symObjAddr: 0x2EC8, symBinAddr: 0x100005FD0, symSize: 0x28 }
  - { offsetInCU: 0xD4CF, offset: 0xD4CF, size: 0x8, addend: 0x0, symName: __ZNSt3__16vectorINS0_IiNS_9allocatorIiEEEENS1_IS3_EEE21_ConstructTransactionD2B7v160006Ev, symObjAddr: 0x2EF0, symBinAddr: 0x100005FF8, symSize: 0x20 }
  - { offsetInCU: 0xD4F9, offset: 0xD4F9, size: 0x8, addend: 0x0, symName: __ZNSt3__128__exception_guard_exceptionsINS_6vectorINS1_IiNS_9allocatorIiEEEENS2_IS4_EEE16__destroy_vectorEED2B7v160006Ev, symObjAddr: 0x2F10, symBinAddr: 0x100006018, symSize: 0x50 }
  - { offsetInCU: 0xD523, offset: 0xD523, size: 0x8, addend: 0x0, symName: __ZNSt3__16vectorINS0_IiNS_9allocatorIiEEEENS1_IS3_EEE16__destroy_vectorclB7v160006Ev, symObjAddr: 0x2F60, symBinAddr: 0x100006068, symSize: 0x9C }
  - { offsetInCU: 0xD549, offset: 0xD549, size: 0x8, addend: 0x0, symName: __ZNKSt3__16vectorINS0_IiNS_9allocatorIiEEEENS1_IS3_EEE17__annotate_deleteB7v160006Ev, symObjAddr: 0x2FFC, symBinAddr: 0x100006104, symSize: 0xD4 }
  - { offsetInCU: 0xD56F, offset: 0xD56F, size: 0x8, addend: 0x0, symName: __ZNSt3__16vectorINS0_IiNS_9allocatorIiEEEENS1_IS3_EEE7__clearB7v160006Ev, symObjAddr: 0x30E0, symBinAddr: 0x1000061E8, symSize: 0x28 }
  - { offsetInCU: 0xD595, offset: 0xD595, size: 0x8, addend: 0x0, symName: __ZNSt3__116allocator_traitsINS_9allocatorINS_6vectorIiNS1_IiEEEEEEE10deallocateB7v160006ERS5_PS4_m, symObjAddr: 0x3108, symBinAddr: 0x100006210, symSize: 0x34 }
  - { offsetInCU: 0xD5D7, offset: 0xD5D7, size: 0x8, addend: 0x0, symName: __ZNKSt3__16vectorINS0_IiNS_9allocatorIiEEEENS1_IS3_EEE4sizeB7v160006Ev, symObjAddr: 0x313C, symBinAddr: 0x100006244, symSize: 0x28 }
  - { offsetInCU: 0xD5FD, offset: 0xD5FD, size: 0x8, addend: 0x0, symName: __ZNSt3__16vectorINS0_IiNS_9allocatorIiEEEENS1_IS3_EEE22__base_destruct_at_endB7v160006EPS3_, symObjAddr: 0x3164, symBinAddr: 0x10000626C, symSize: 0x8C }
  - { offsetInCU: 0xD641, offset: 0xD641, size: 0x8, addend: 0x0, symName: __ZNSt3__116allocator_traitsINS_9allocatorINS_6vectorIiNS1_IiEEEEEEE7destroyB7v160006IS4_vEEvRS5_PT_, symObjAddr: 0x31F0, symBinAddr: 0x1000062F8, symSize: 0x2C }
  - { offsetInCU: 0xD67E, offset: 0xD67E, size: 0x8, addend: 0x0, symName: __ZNSt3__19allocatorINS_6vectorIiNS0_IiEEEEE7destroyB7v160006EPS3_, symObjAddr: 0x321C, symBinAddr: 0x100006324, symSize: 0x28 }
  - { offsetInCU: 0xD6B2, offset: 0xD6B2, size: 0x8, addend: 0x0, symName: __ZNSt3__19allocatorINS_6vectorIiNS0_IiEEEEE10deallocateB7v160006EPS3_m, symObjAddr: 0x3244, symBinAddr: 0x10000634C, symSize: 0x44 }
  - { offsetInCU: 0xD6F4, offset: 0xD6F4, size: 0x8, addend: 0x0, symName: __ZNSt3__16vectorINS0_IiNS_9allocatorIiEEEENS1_IS3_EEED2B7v160006Ev, symObjAddr: 0x3288, symBinAddr: 0x100006390, symSize: 0x44 }
  - { offsetInCU: 0xD71E, offset: 0xD71E, size: 0x8, addend: 0x0, symName: __ZNSt3__112basic_stringIcNS_11char_traitsIcEENS_9allocatorIcEEEC2B7v160006Ev, symObjAddr: 0x32CC, symBinAddr: 0x1000063D4, symSize: 0x54 }
  - { offsetInCU: 0xD748, offset: 0xD748, size: 0x8, addend: 0x0, symName: __ZNSt3__117__compressed_pairINS_12basic_stringIcNS_11char_traitsIcEENS_9allocatorIcEEE5__repES5_EC1B7v160006INS_18__default_init_tagESA_EEOT_OT0_, symObjAddr: 0x3320, symBinAddr: 0x100006428, symSize: 0x3C }
  - { offsetInCU: 0xD7A0, offset: 0xD7A0, size: 0x8, addend: 0x0, symName: __ZNSt3__112basic_stringIcNS_11char_traitsIcEENS_9allocatorIcEEE14__default_initB7v160006Ev, symObjAddr: 0x336C, symBinAddr: 0x100006474, symSize: 0x40 }
  - { offsetInCU: 0xD7C6, offset: 0xD7C6, size: 0x8, addend: 0x0, symName: __ZNSt3__117__compressed_pairINS_12basic_stringIcNS_11char_traitsIcEENS_9allocatorIcEEE5__repES5_EC2B7v160006INS_18__default_init_tagESA_EEOT_OT0_, symObjAddr: 0x33AC, symBinAddr: 0x1000064B4, symSize: 0x3C }
  - { offsetInCU: 0xD81E, offset: 0xD81E, size: 0x8, addend: 0x0, symName: __ZNSt3__122__compressed_pair_elemINS_12basic_stringIcNS_11char_traitsIcEENS_9allocatorIcEEE5__repELi0ELb0EEC2B7v160006ENS_18__default_init_tagE, symObjAddr: 0x33E8, symBinAddr: 0x1000064F0, symSize: 0x14 }
  - { offsetInCU: 0xD853, offset: 0xD853, size: 0x8, addend: 0x0, symName: __ZNSt3__122__compressed_pair_elemINS_9allocatorIcEELi1ELb1EEC2B7v160006ENS_18__default_init_tagE, symObjAddr: 0x33FC, symBinAddr: 0x100006504, symSize: 0x2C }
  - { offsetInCU: 0xD888, offset: 0xD888, size: 0x8, addend: 0x0, symName: __ZNSt3__19allocatorIcEC2B7v160006Ev, symObjAddr: 0x3428, symBinAddr: 0x100006530, symSize: 0x2C }
  - { offsetInCU: 0xD8B2, offset: 0xD8B2, size: 0x8, addend: 0x0, symName: __ZNSt3__116__non_trivial_ifILb1ENS_9allocatorIcEEEC2B7v160006Ev, symObjAddr: 0x3454, symBinAddr: 0x10000655C, symSize: 0x14 }
  - { offsetInCU: 0xD8DC, offset: 0xD8DC, size: 0x8, addend: 0x0, symName: __ZNSt3__117__compressed_pairINS_12basic_stringIcNS_11char_traitsIcEENS_9allocatorIcEEE5__repES5_E5firstB7v160006Ev, symObjAddr: 0x3468, symBinAddr: 0x100006570, symSize: 0x24 }
  - { offsetInCU: 0xD902, offset: 0xD902, size: 0x8, addend: 0x0, symName: __ZNSt3__122__compressed_pair_elemINS_12basic_stringIcNS_11char_traitsIcEENS_9allocatorIcEEE5__repELi0ELb0EE5__getB7v160006Ev, symObjAddr: 0x348C, symBinAddr: 0x100006594, symSize: 0x14 }
  - { offsetInCU: 0xD928, offset: 0xD928, size: 0x8, addend: 0x0, symName: __ZNKSt3__112basic_stringIcNS_11char_traitsIcEENS_9allocatorIcEEE4dataB7v160006Ev, symObjAddr: 0x34A0, symBinAddr: 0x1000065A8, symSize: 0x28 }
  - { offsetInCU: 0xD94E, offset: 0xD94E, size: 0x8, addend: 0x0, symName: __ZNKSt3__112basic_stringIcNS_11char_traitsIcEENS_9allocatorIcEEE13__get_pointerB7v160006Ev, symObjAddr: 0x34DC, symBinAddr: 0x1000065E4, symSize: 0x54 }
  - { offsetInCU: 0xD974, offset: 0xD974, size: 0x8, addend: 0x0, symName: __ZNKSt3__112basic_stringIcNS_11char_traitsIcEENS_9allocatorIcEEE18__get_long_pointerB7v160006Ev, symObjAddr: 0x3530, symBinAddr: 0x100006638, symSize: 0x28 }
  - { offsetInCU: 0xD99A, offset: 0xD99A, size: 0x8, addend: 0x0, symName: __ZNKSt3__112basic_stringIcNS_11char_traitsIcEENS_9allocatorIcEEE19__get_short_pointerB7v160006Ev, symObjAddr: 0x3558, symBinAddr: 0x100006660, symSize: 0x28 }
  - { offsetInCU: 0xD9C0, offset: 0xD9C0, size: 0x8, addend: 0x0, symName: __ZNSt3__114pointer_traitsIPKcE10pointer_toB7v160006ERS1_, symObjAddr: 0x3580, symBinAddr: 0x100006688, symSize: 0x14 }
  - { offsetInCU: 0xD9E3, offset: 0xD9E3, size: 0x8, addend: 0x0, symName: __ZNSt3__19allocatorIcEC1B7v160006Ev, symObjAddr: 0x3594, symBinAddr: 0x10000669C, symSize: 0x2C }
  - { offsetInCU: 0xDA0D, offset: 0xDA0D, size: 0x8, addend: 0x0, symName: __ZNSt3__112basic_stringIcNS_11char_traitsIcEENS_9allocatorIcEEE13__move_assignB7v160006ERS5_NS_17integral_constantIbLb1EEE, symObjAddr: 0x35C0, symBinAddr: 0x1000066C8, symSize: 0xC8 }
  - { offsetInCU: 0xDA50, offset: 0xDA50, size: 0x8, addend: 0x0, symName: __ZNSt3__116allocator_traitsINS_9allocatorIcEEE10deallocateB7v160006ERS2_Pcm, symObjAddr: 0x3688, symBinAddr: 0x100006790, symSize: 0x34 }
  - { offsetInCU: 0xDA92, offset: 0xDA92, size: 0x8, addend: 0x0, symName: __ZNSt3__112basic_stringIcNS_11char_traitsIcEENS_9allocatorIcEEE7__allocB7v160006Ev, symObjAddr: 0x36BC, symBinAddr: 0x1000067C4, symSize: 0x24 }
  - { offsetInCU: 0xDAB8, offset: 0xDAB8, size: 0x8, addend: 0x0, symName: __ZNSt3__112basic_stringIcNS_11char_traitsIcEENS_9allocatorIcEEE18__get_long_pointerB7v160006Ev, symObjAddr: 0x36E0, symBinAddr: 0x1000067E8, symSize: 0x28 }
  - { offsetInCU: 0xDADE, offset: 0xDADE, size: 0x8, addend: 0x0, symName: __ZNKSt3__112basic_stringIcNS_11char_traitsIcEENS_9allocatorIcEEE14__get_long_capB7v160006Ev, symObjAddr: 0x3708, symBinAddr: 0x100006810, symSize: 0x30 }
  - { offsetInCU: 0xDB04, offset: 0xDB04, size: 0x8, addend: 0x0, symName: __ZNSt3__112basic_stringIcNS_11char_traitsIcEENS_9allocatorIcEEE19__move_assign_allocB7v160006ERS5_, symObjAddr: 0x3738, symBinAddr: 0x100006840, symSize: 0x2C }
  - { offsetInCU: 0xDB39, offset: 0xDB39, size: 0x8, addend: 0x0, symName: __ZNSt3__112basic_stringIcNS_11char_traitsIcEENS_9allocatorIcEEE16__set_short_sizeB7v160006Em, symObjAddr: 0x3764, symBinAddr: 0x10000686C, symSize: 0x78 }
  - { offsetInCU: 0xDB6E, offset: 0xDB6E, size: 0x8, addend: 0x0, symName: __ZNSt3__111char_traitsIcE6assignERcRKc, symObjAddr: 0x37DC, symBinAddr: 0x1000068E4, symSize: 0x24 }
  - { offsetInCU: 0xDB9F, offset: 0xDB9F, size: 0x8, addend: 0x0, symName: __ZNSt3__112basic_stringIcNS_11char_traitsIcEENS_9allocatorIcEEE19__get_short_pointerB7v160006Ev, symObjAddr: 0x3800, symBinAddr: 0x100006908, symSize: 0x28 }
  - { offsetInCU: 0xDBC5, offset: 0xDBC5, size: 0x8, addend: 0x0, symName: __ZNSt3__19allocatorIcE10deallocateB7v160006EPcm, symObjAddr: 0x3828, symBinAddr: 0x100006930, symSize: 0x40 }
  - { offsetInCU: 0xDC07, offset: 0xDC07, size: 0x8, addend: 0x0, symName: __ZNSt3__117__compressed_pairINS_12basic_stringIcNS_11char_traitsIcEENS_9allocatorIcEEE5__repES5_E6secondB7v160006Ev, symObjAddr: 0x3868, symBinAddr: 0x100006970, symSize: 0x24 }
  - { offsetInCU: 0xDC2D, offset: 0xDC2D, size: 0x8, addend: 0x0, symName: __ZNSt3__122__compressed_pair_elemINS_9allocatorIcEELi1ELb1EE5__getB7v160006Ev, symObjAddr: 0x388C, symBinAddr: 0x100006994, symSize: 0x14 }
  - { offsetInCU: 0xDC53, offset: 0xDC53, size: 0x8, addend: 0x0, symName: __ZNSt3__112basic_stringIcNS_11char_traitsIcEENS_9allocatorIcEEE19__move_assign_allocB7v160006ERS5_NS_17integral_constantIbLb1EEE, symObjAddr: 0x38A0, symBinAddr: 0x1000069A8, symSize: 0x38 }
  - { offsetInCU: 0xDC94, offset: 0xDC94, size: 0x8, addend: 0x0, symName: __ZNSt3__114pointer_traitsIPcE10pointer_toB7v160006ERc, symObjAddr: 0x38D8, symBinAddr: 0x1000069E0, symSize: 0x14 }
  - { offsetInCU: 0xDD59, offset: 0xDD59, size: 0x8, addend: 0x0, symName: __ZNKSt3__113basic_istreamIcNS_11char_traitsIcEEE6sentrycvbB7v160006Ev, symObjAddr: 0x38EC, symBinAddr: 0x1000069F4, symSize: 0x1C }
  - { offsetInCU: 0xDD7F, offset: 0xDD7F, size: 0x8, addend: 0x0, symName: __ZNSt3__112basic_stringIcNS_11char_traitsIcEENS_9allocatorIcEEE5clearB7v160006Ev, symObjAddr: 0x3908, symBinAddr: 0x100006A10, symSize: 0x88 }
  - { offsetInCU: 0xDDA7, offset: 0xDDA7, size: 0x8, addend: 0x0, symName: __ZNKSt3__18ios_base5widthB7v160006Ev, symObjAddr: 0x3990, symBinAddr: 0x100006A98, symSize: 0x18 }
  - { offsetInCU: 0xDDCF, offset: 0xDDCF, size: 0x8, addend: 0x0, symName: __ZNKSt3__112basic_stringIcNS_11char_traitsIcEENS_9allocatorIcEEE8max_sizeB7v160006Ev, symObjAddr: 0x39A8, symBinAddr: 0x100006AB0, symSize: 0xAC }
  - { offsetInCU: 0xDE22, offset: 0xDE22, size: 0x8, addend: 0x0, symName: __ZNKSt3__19basic_iosIcNS_11char_traitsIcEEE5rdbufB7v160006Ev, symObjAddr: 0x3A80, symBinAddr: 0x100006B88, symSize: 0x24 }
  - { offsetInCU: 0xDE4A, offset: 0xDE4A, size: 0x8, addend: 0x0, symName: __ZNSt3__115basic_streambufIcNS_11char_traitsIcEEE5sgetcB7v160006Ev, symObjAddr: 0x3AA4, symBinAddr: 0x100006BAC, symSize: 0x70 }
  - { offsetInCU: 0xDE70, offset: 0xDE70, size: 0x8, addend: 0x0, symName: __ZNSt3__111char_traitsIcE11eq_int_typeEii, symObjAddr: 0x3B14, symBinAddr: 0x100006C1C, symSize: 0x28 }
  - { offsetInCU: 0xDEA1, offset: 0xDEA1, size: 0x8, addend: 0x0, symName: __ZNSt3__111char_traitsIcE3eofEv, symObjAddr: 0x3B3C, symBinAddr: 0x100006C44, symSize: 0x8 }
  - { offsetInCU: 0xDEB5, offset: 0xDEB5, size: 0x8, addend: 0x0, symName: __ZNSt3__111char_traitsIcE12to_char_typeEi, symObjAddr: 0x3B44, symBinAddr: 0x100006C4C, symSize: 0x18 }
  - { offsetInCU: 0xDF05, offset: 0xDF05, size: 0x8, addend: 0x0, symName: __ZNKSt3__15ctypeIcE2isB7v160006Ejc, symObjAddr: 0x3B5C, symBinAddr: 0x100006C64, symSize: 0x7C }
  - { offsetInCU: 0xDF49, offset: 0xDF49, size: 0x8, addend: 0x0, symName: __ZNSt3__115basic_streambufIcNS_11char_traitsIcEEE6sbumpcB7v160006Ev, symObjAddr: 0x3BD8, symBinAddr: 0x100006CE0, symSize: 0x78 }
  - { offsetInCU: 0xDF6F, offset: 0xDF6F, size: 0x8, addend: 0x0, symName: __ZNSt3__18ios_base5widthB7v160006El, symObjAddr: 0x3C50, symBinAddr: 0x100006D58, symSize: 0x2C }
  - { offsetInCU: 0xDFB5, offset: 0xDFB5, size: 0x8, addend: 0x0, symName: __ZNSt3__18ios_base18__setstate_nothrowB7v160006Ej, symObjAddr: 0x3C7C, symBinAddr: 0x100006D84, symSize: 0x64 }
  - { offsetInCU: 0xDFEA, offset: 0xDFEA, size: 0x8, addend: 0x0, symName: __ZNKSt3__19basic_iosIcNS_11char_traitsIcEEE10exceptionsB7v160006Ev, symObjAddr: 0x3CE0, symBinAddr: 0x100006DE8, symSize: 0x24 }
  - { offsetInCU: 0xE010, offset: 0xE010, size: 0x8, addend: 0x0, symName: __ZNSt3__19basic_iosIcNS_11char_traitsIcEEE8setstateB7v160006Ej, symObjAddr: 0x3D04, symBinAddr: 0x100006E0C, symSize: 0x2C }
  - { offsetInCU: 0xE045, offset: 0xE045, size: 0x8, addend: 0x0, symName: __ZNSt3__112basic_stringIcNS_11char_traitsIcEENS_9allocatorIcEEE15__set_long_sizeB7v160006Em, symObjAddr: 0x3D40, symBinAddr: 0x100006E48, symSize: 0x38 }
  - { offsetInCU: 0xE084, offset: 0xE084, size: 0x8, addend: 0x0, symName: __ZNSt3__116allocator_traitsINS_9allocatorIcEEE8max_sizeB7v160006IS2_vEEmRKS2_, symObjAddr: 0x3D78, symBinAddr: 0x100006E80, symSize: 0x24 }
  - { offsetInCU: 0xE0B2, offset: 0xE0B2, size: 0x8, addend: 0x0, symName: __ZNKSt3__112basic_stringIcNS_11char_traitsIcEENS_9allocatorIcEEE7__allocB7v160006Ev, symObjAddr: 0x3D9C, symBinAddr: 0x100006EA4, symSize: 0x24 }
  - { offsetInCU: 0xE0D8, offset: 0xE0D8, size: 0x8, addend: 0x0, symName: __ZNSt3__114numeric_limitsImE3maxB7v160006Ev, symObjAddr: 0x3DC0, symBinAddr: 0x100006EC8, symSize: 0x14 }
  - { offsetInCU: 0xE0EC, offset: 0xE0EC, size: 0x8, addend: 0x0, symName: __ZNKSt3__19allocatorIcE8max_sizeB7v160006Ev, symObjAddr: 0x3DD4, symBinAddr: 0x100006EDC, symSize: 0x14 }
  - { offsetInCU: 0xE112, offset: 0xE112, size: 0x8, addend: 0x0, symName: __ZNKSt3__117__compressed_pairINS_12basic_stringIcNS_11char_traitsIcEENS_9allocatorIcEEE5__repES5_E6secondB7v160006Ev, symObjAddr: 0x3DE8, symBinAddr: 0x100006EF0, symSize: 0x24 }
  - { offsetInCU: 0xE138, offset: 0xE138, size: 0x8, addend: 0x0, symName: __ZNKSt3__122__compressed_pair_elemINS_9allocatorIcEELi1ELb1EE5__getB7v160006Ev, symObjAddr: 0x3E0C, symBinAddr: 0x100006F14, symSize: 0x14 }
  - { offsetInCU: 0xE15E, offset: 0xE15E, size: 0x8, addend: 0x0, symName: __ZNSt3__123__libcpp_numeric_limitsImLb1EE3maxB7v160006Ev, symObjAddr: 0x3E20, symBinAddr: 0x100006F28, symSize: 0x8 }
  - { offsetInCU: 0xE172, offset: 0xE172, size: 0x8, addend: 0x0, symName: __ZNKSt3__18ios_base5rdbufB7v160006Ev, symObjAddr: 0x3E28, symBinAddr: 0x100006F30, symSize: 0x18 }
  - { offsetInCU: 0xE198, offset: 0xE198, size: 0x8, addend: 0x0, symName: __ZNSt3__111char_traitsIcE11to_int_typeEc, symObjAddr: 0x3E40, symBinAddr: 0x100006F48, symSize: 0x14 }
  - { offsetInCU: 0xE1BA, offset: 0xE1BA, size: 0x8, addend: 0x0, symName: __Z7isasciii, symObjAddr: 0x3E54, symBinAddr: 0x100006F5C, symSize: 0x24 }
  - { offsetInCU: 0xE1E7, offset: 0xE1E7, size: 0x8, addend: 0x0, symName: __ZNKSt3__18ios_base10exceptionsB7v160006Ev, symObjAddr: 0x3E78, symBinAddr: 0x100006F80, symSize: 0x18 }
  - { offsetInCU: 0xE20F, offset: 0xE20F, size: 0x8, addend: 0x0, symName: __ZNSt3__18ios_base8setstateB7v160006Ej, symObjAddr: 0x3E90, symBinAddr: 0x100006F98, symSize: 0x34 }
  - { offsetInCU: 0xE246, offset: 0xE246, size: 0x8, addend: 0x0, symName: __ZNSt3__111char_traitsIcE6lengthEPKc, symObjAddr: 0x40B0, symBinAddr: 0x1000071B8, symSize: 0x34 }
  - { offsetInCU: 0xE287, offset: 0xE287, size: 0x8, addend: 0x0, symName: __ZNKSt3__113basic_ostreamIcNS_11char_traitsIcEEE6sentrycvbB7v160006Ev, symObjAddr: 0x40E4, symBinAddr: 0x1000071EC, symSize: 0x1C }
  - { offsetInCU: 0xE2AD, offset: 0xE2AD, size: 0x8, addend: 0x0, symName: __ZNSt3__119ostreambuf_iteratorIcNS_11char_traitsIcEEEC1B7v160006ERNS_13basic_ostreamIcS2_EE, symObjAddr: 0x4340, symBinAddr: 0x100007448, symSize: 0x34 }
  - { offsetInCU: 0xE2E5, offset: 0xE2E5, size: 0x8, addend: 0x0, symName: __ZNKSt3__18ios_base5flagsB7v160006Ev, symObjAddr: 0x4374, symBinAddr: 0x10000747C, symSize: 0x18 }
  - { offsetInCU: 0xE30D, offset: 0xE30D, size: 0x8, addend: 0x0, symName: __ZNKSt3__19basic_iosIcNS_11char_traitsIcEEE4fillB7v160006Ev, symObjAddr: 0x438C, symBinAddr: 0x100007494, symSize: 0x64 }
  - { offsetInCU: 0xE335, offset: 0xE335, size: 0x8, addend: 0x0, symName: __ZNKSt3__119ostreambuf_iteratorIcNS_11char_traitsIcEEE6failedB7v160006Ev, symObjAddr: 0x43F0, symBinAddr: 0x1000074F8, symSize: 0x24 }
  - { offsetInCU: 0xE35B, offset: 0xE35B, size: 0x8, addend: 0x0, symName: __ZNSt3__115basic_streambufIcNS_11char_traitsIcEEE5sputnB7v160006EPKcl, symObjAddr: 0x4414, symBinAddr: 0x10000751C, symSize: 0x3C }
  - { offsetInCU: 0xE39D, offset: 0xE39D, size: 0x8, addend: 0x0, symName: __ZNSt3__112basic_stringIcNS_11char_traitsIcEENS_9allocatorIcEEEC1B7v160006Emc, symObjAddr: 0x4450, symBinAddr: 0x100007558, symSize: 0x3C }
  - { offsetInCU: 0xE3E5, offset: 0xE3E5, size: 0x8, addend: 0x0, symName: __ZNSt3__112basic_stringIcNS_11char_traitsIcEENS_9allocatorIcEEEC2B7v160006Emc, symObjAddr: 0x448C, symBinAddr: 0x100007594, symSize: 0x54 }
  - { offsetInCU: 0xE42D, offset: 0xE42D, size: 0x8, addend: 0x0, symName: __ZNSt3__119ostreambuf_iteratorIcNS_11char_traitsIcEEEC2B7v160006ERNS_13basic_ostreamIcS2_EE, symObjAddr: 0x44E0, symBinAddr: 0x1000075E8, symSize: 0x54 }
  - { offsetInCU: 0xE465, offset: 0xE465, size: 0x8, addend: 0x0, symName: __ZNKSt3__19basic_iosIcNS_11char_traitsIcEEE5widenB7v160006Ec, symObjAddr: 0x4534, symBinAddr: 0x10000763C, symSize: 0x84 }
  - { offsetInCU: 0xE49C, offset: 0xE49C, size: 0x8, addend: 0x0, symName: __ZNKSt3__15ctypeIcE5widenB7v160006Ec, symObjAddr: 0x45B8, symBinAddr: 0x1000076C0, symSize: 0x38 }
...
