---
triple:          'arm64-apple-darwin'
binary-path:     '/Users/liyaodong/Documents/vscode/seq_tree/seq_tree'
relocations:
  - { offsetInCU: 0x486F, offset: 0x486F, size: 0x8, addend: 0x0, symName: __ZNSt3__124__put_character_sequenceB7v160006IcNS_11char_traitsIcEEEERNS_13basic_ostreamIT_T0_EES7_PKS4_m, symObjAddr: 0x253C, symBinAddr: 0x100002AC8, symSize: 0x1EC }
  - { offsetInCU: 0x63CB, offset: 0x63CB, size: 0x8, addend: 0x0, symName: __ZNSt3__1lsB7v160006INS_11char_traitsIcEEEERNS_13basic_ostreamIcT_EES6_PKc, symObjAddr: 0x448, symBinAddr: 0x1000009D4, symSize: 0x48 }
  - { offsetInCU: 0x6411, offset: 0x6411, size: 0x8, addend: 0x0, symName: __ZNSt3__14endlB7v160006IcNS_11char_traitsIcEEEERNS_13basic_ostreamIT_T0_EES7_, symObjAddr: 0x4E4, symBinAddr: 0x100000A70, symSize: 0x58 }
  - { offsetInCU: 0x6451, offset: 0x6451, size: 0x8, addend: 0x0, symName: __ZNSt3__118__debug_db_erase_cB7v160006INS_6vectorI8TreeNodeIiENS_9allocatorIS3_EEEEEEvPT_, symObjAddr: 0x808, symBinAddr: 0x100000D94, symSize: 0x10 }
  - { offsetInCU: 0x6482, offset: 0x6482, size: 0x8, addend: 0x0, symName: __ZNSt3__112__to_addressB7v160006I8TreeNodeIiEEEPT_S4_, symObjAddr: 0x94C, symBinAddr: 0x100000ED8, symSize: 0x14 }
  - { offsetInCU: 0x64B7, offset: 0x64B7, size: 0x8, addend: 0x0, symName: __ZNSt3__119__libcpp_deallocateB7v160006EPvmm, symObjAddr: 0xA6C, symBinAddr: 0x100000FF8, symSize: 0x30 }
  - { offsetInCU: 0x64FF, offset: 0x64FF, size: 0x8, addend: 0x0, symName: __ZNSt3__127__do_deallocate_handle_sizeB7v160006IJEEEvPvmDpT_, symObjAddr: 0xA9C, symBinAddr: 0x100001028, symSize: 0x28 }
  - { offsetInCU: 0x653D, offset: 0x653D, size: 0x8, addend: 0x0, symName: __ZNSt3__124__libcpp_operator_deleteB7v160006IJPvEEEvDpT_, symObjAddr: 0xAC4, symBinAddr: 0x100001050, symSize: 0x24 }
  - { offsetInCU: 0x6572, offset: 0x6572, size: 0x8, addend: 0x0, symName: __ZNSt3__119__debug_db_insert_cB7v160006INS_6vectorI8TreeNodeIiENS_9allocatorIS3_EEEEEEvPT_, symObjAddr: 0xC6C, symBinAddr: 0x1000011F8, symSize: 0x10 }
  - { offsetInCU: 0x65A3, offset: 0x65A3, size: 0x8, addend: 0x0, symName: __ZNSt3__13maxB7v160006ImEERKT_S3_S3_, symObjAddr: 0x149C, symBinAddr: 0x100001A28, symSize: 0x2C }
  - { offsetInCU: 0x65E6, offset: 0x65E6, size: 0x8, addend: 0x0, symName: __ZNSt3__13minB7v160006ImEERKT_S3_S3_, symObjAddr: 0x14C8, symBinAddr: 0x100001A54, symSize: 0x2C }
  - { offsetInCU: 0x682A, offset: 0x682A, size: 0x8, addend: 0x0, symName: __ZNSt3__13minB7v160006ImNS_6__lessImmEEEERKT_S5_S5_T0_, symObjAddr: 0x1554, symBinAddr: 0x100001AE0, symSize: 0x54 }
  - { offsetInCU: 0x68BF, offset: 0x68BF, size: 0x8, addend: 0x0, symName: __ZNSt3__120__throw_length_errorB7v160006EPKc, symObjAddr: 0x1630, symBinAddr: 0x100001BBC, symSize: 0x64 }
  - { offsetInCU: 0x68E7, offset: 0x68E7, size: 0x8, addend: 0x0, symName: __ZNSt3__13maxB7v160006ImNS_6__lessImmEEEERKT_S5_S5_T0_, symObjAddr: 0x1714, symBinAddr: 0x100001CA0, symSize: 0x54 }
  - { offsetInCU: 0x6941, offset: 0x6941, size: 0x8, addend: 0x0, symName: __ZNSt3__119__allocate_at_leastB7v160006INS_9allocatorI8TreeNodeIiEEEEENS_19__allocation_resultINS_16allocator_traitsIT_E7pointerEEERS7_m, symObjAddr: 0x1878, symBinAddr: 0x100001E04, symSize: 0x40 }
  - { offsetInCU: 0x6984, offset: 0x6984, size: 0x8, addend: 0x0, symName: __ZNSt3__117__libcpp_allocateB7v160006Emm, symObjAddr: 0x19FC, symBinAddr: 0x100001F88, symSize: 0x28 }
  - { offsetInCU: 0x69C1, offset: 0x69C1, size: 0x8, addend: 0x0, symName: __ZNSt3__121__libcpp_operator_newB7v160006IJmEEEPvDpT_, symObjAddr: 0x1A24, symBinAddr: 0x100001FB0, symSize: 0x24 }
  - { offsetInCU: 0x69FA, offset: 0x69FA, size: 0x8, addend: 0x0, symName: __ZNSt3__142__uninitialized_allocator_move_if_noexceptB7v160006INS_9allocatorI8TreeNodeIiEEENS_16reverse_iteratorIPS3_EES7_S3_vEET1_RT_T0_SB_S8_, symObjAddr: 0x1AAC, symBinAddr: 0x100002038, symSize: 0x78 }
  - { offsetInCU: 0x6A77, offset: 0x6A77, size: 0x8, addend: 0x0, symName: __ZNSt3__14swapB7v160006IP8TreeNodeIiEEENS_9enable_ifIXaasr21is_move_constructibleIT_EE5valuesr18is_move_assignableIS5_EE5valueEvE4typeERS5_S8_, symObjAddr: 0x1B70, symBinAddr: 0x1000020FC, symSize: 0x3C }
  - { offsetInCU: 0x6AC8, offset: 0x6AC8, size: 0x8, addend: 0x0, symName: __ZNSt3__125__debug_db_invalidate_allB7v160006INS_6vectorI8TreeNodeIiENS_9allocatorIS3_EEEEEEvPT_, symObjAddr: 0x1C58, symBinAddr: 0x1000021E4, symSize: 0x10 }
  - { offsetInCU: 0x6AF9, offset: 0x6AF9, size: 0x8, addend: 0x0, symName: __ZNSt3__14moveB7v160006INS_16reverse_iteratorIP8TreeNodeIiEEES5_EET0_T_S7_S6_, symObjAddr: 0x1C68, symBinAddr: 0x1000021F4, symSize: 0x78 }
  - { offsetInCU: 0x6B53, offset: 0x6B53, size: 0x8, addend: 0x0, symName: __ZNSt3__16__moveB7v160006INS_17_ClassicAlgPolicyENS_16reverse_iteratorIP8TreeNodeIiEEES6_S6_EENS_4pairIT0_T2_EES8_T1_S9_, symObjAddr: 0x1CE0, symBinAddr: 0x10000226C, symSize: 0x64 }
  - { offsetInCU: 0x6BBF, offset: 0x6BBF, size: 0x8, addend: 0x0, symName: __ZNSt3__123__dispatch_copy_or_moveB7v160006INS_17_ClassicAlgPolicyENS_11__move_loopIS1_EENS_14__move_trivialENS_16reverse_iteratorIP8TreeNodeIiEEES9_S9_EENS_4pairIT2_T4_EESB_T3_SC_, symObjAddr: 0x1D44, symBinAddr: 0x1000022D0, symSize: 0x64 }
  - { offsetInCU: 0x6C3D, offset: 0x6C3D, size: 0x8, addend: 0x0, symName: __ZNSt3__121__unwrap_and_dispatchB7v160006INS_10__overloadINS_11__move_loopINS_17_ClassicAlgPolicyEEENS_14__move_trivialEEENS_16reverse_iteratorIP8TreeNodeIiEEESB_SB_Li0EEENS_4pairIT0_T2_EESD_T1_SE_, symObjAddr: 0x1DA8, symBinAddr: 0x100002334, symSize: 0x12C }
  - { offsetInCU: 0x6CCD, offset: 0x6CCD, size: 0x8, addend: 0x0, symName: __ZNSt3__114__unwrap_rangeB7v160006INS_16reverse_iteratorIP8TreeNodeIiEEES5_EENS_4pairIT0_S7_EET_S9_, symObjAddr: 0x1ED4, symBinAddr: 0x100002460, symSize: 0x84 }
  - { offsetInCU: 0x6E48, offset: 0x6E48, size: 0x8, addend: 0x0, symName: __ZNSt3__113__unwrap_iterB7v160006INS_16reverse_iteratorIP8TreeNodeIiEEENS_18__unwrap_iter_implIS5_Lb0EEELi0EEEDTclsrT0_8__unwrapclsr3stdE7declvalIT_EEEES9_, symObjAddr: 0x1FF8, symBinAddr: 0x100002584, symSize: 0x44 }
  - { offsetInCU: 0x6E8C, offset: 0x6E8C, size: 0x8, addend: 0x0, symName: __ZNSt3__19make_pairB7v160006INS_16reverse_iteratorIP8TreeNodeIiEEES5_EENS_4pairINS_18__unwrap_ref_decayIT_E4typeENS7_IT0_E4typeEEEOS8_OSB_, symObjAddr: 0x203C, symBinAddr: 0x1000025C8, symSize: 0x38 }
  - { offsetInCU: 0x6EDB, offset: 0x6EDB, size: 0x8, addend: 0x0, symName: __ZNSt3__114__rewrap_rangeB7v160006INS_16reverse_iteratorIP8TreeNodeIiEEES5_EET_S6_T0_, symObjAddr: 0x2074, symBinAddr: 0x100002600, symSize: 0x5C }
  - { offsetInCU: 0x6F27, offset: 0x6F27, size: 0x8, addend: 0x0, symName: __ZNSt3__113__rewrap_iterB7v160006INS_16reverse_iteratorIP8TreeNodeIiEEES5_NS_18__unwrap_iter_implIS5_Lb0EEEEET_S8_T0_, symObjAddr: 0x20D0, symBinAddr: 0x10000265C, symSize: 0x74 }
  - { offsetInCU: 0x6F7C, offset: 0x6F7C, size: 0x8, addend: 0x0, symName: __ZNSt3__1neB7v160006IP8TreeNodeIiES3_EEbRKNS_16reverse_iteratorIT_EERKNS4_IT0_EE, symObjAddr: 0x2144, symBinAddr: 0x1000026D0, symSize: 0x48 }
  - { offsetInCU: 0x707A, offset: 0x707A, size: 0x8, addend: 0x0, symName: __ZNSt3__116__pad_and_outputB7v160006IcNS_11char_traitsIcEEEENS_19ostreambuf_iteratorIT_T0_EES6_PKS4_S8_S8_RNS_8ios_baseES4_, symObjAddr: 0x2778, symBinAddr: 0x100002D04, symSize: 0x240 }
  - { offsetInCU: 0x7149, offset: 0x7149, size: 0x8, addend: 0x0, symName: __ZNSt3__119__debug_db_insert_cB7v160006INS_12basic_stringIcNS_11char_traitsIcEENS_9allocatorIcEEEEEEvPT_, symObjAddr: 0x2C2C, symBinAddr: 0x1000031B8, symSize: 0x10 }
  - { offsetInCU: 0x717A, offset: 0x717A, size: 0x8, addend: 0x0, symName: __ZNSt3__112__to_addressB7v160006IKcEEPT_S3_, symObjAddr: 0x2CF8, symBinAddr: 0x100003284, symSize: 0x14 }
  - { offsetInCU: 0x71E2, offset: 0x71E2, size: 0x8, addend: 0x0, symName: __ZNSt3__19use_facetB7v160006INS_5ctypeIcEEEERKT_RKNS_6localeE, symObjAddr: 0x2F78, symBinAddr: 0x100003504, symSize: 0x2C }
  - { offsetInCU: 0x76B1, offset: 0x76B1, size: 0x8, addend: 0x0, symName: __ZNSt3__118__constexpr_strlenB7v160006EPKc, symObjAddr: 0x3010, symBinAddr: 0x10000359C, symSize: 0x24 }
  - { offsetInCU: 0x76DD, offset: 0x76DD, size: 0x8, addend: 0x0, symName: __ZNSt3__13maxB7v160006IiEERKT_S3_S3_, symObjAddr: 0x3140, symBinAddr: 0x1000036CC, symSize: 0x2C }
  - { offsetInCU: 0x7720, offset: 0x7720, size: 0x8, addend: 0x0, symName: __ZNSt3__13maxB7v160006IiNS_6__lessIiiEEEERKT_S5_S5_T0_, symObjAddr: 0x316C, symBinAddr: 0x1000036F8, symSize: 0x54 }
  - { offsetInCU: 0x7A4A, offset: 0x7A4A, size: 0x8, addend: 0x0, symName: __ZSt28__throw_bad_array_new_lengthB7v160006v, symObjAddr: 0x19C8, symBinAddr: 0x100001F54, symSize: 0x34 }
  - { offsetInCU: 0x7F4F, offset: 0x7F4F, size: 0x8, addend: 0x0, symName: __ZNSt3__16vectorI8TreeNodeIiENS_9allocatorIS2_EEE26__swap_out_circular_bufferERNS_14__split_bufferIS2_RS4_EE, symObjAddr: 0x12DC, symBinAddr: 0x100001868, symSize: 0x118 }
  - { offsetInCU: 0xA1EC, offset: 0xA1EC, size: 0x8, addend: 0x0, symName: _main, symObjAddr: 0x0, symBinAddr: 0x10000058C, symSize: 0x270 }
  - { offsetInCU: 0xA32D, offset: 0xA32D, size: 0x8, addend: 0x0, symName: __ZN4TreeIiEC1Ev, symObjAddr: 0x270, symBinAddr: 0x1000007FC, symSize: 0x2C }
  - { offsetInCU: 0xA356, offset: 0xA356, size: 0x8, addend: 0x0, symName: __ZN4TreeIiE6InsertERKiS2_, symObjAddr: 0x29C, symBinAddr: 0x100000828, symSize: 0x1AC }
  - { offsetInCU: 0xA3D1, offset: 0xA3D1, size: 0x8, addend: 0x0, symName: __ZNK4TreeIiE10TreedegreeEv, symObjAddr: 0x490, symBinAddr: 0x100000A1C, symSize: 0x28 }
  - { offsetInCU: 0xA3F6, offset: 0xA3F6, size: 0x8, addend: 0x0, symName: __ZNSt3__113basic_ostreamIcNS_11char_traitsIcEEElsB7v160006EPFRS3_S4_E, symObjAddr: 0x4B8, symBinAddr: 0x100000A44, symSize: 0x2C }
  - { offsetInCU: 0xA429, offset: 0xA429, size: 0x8, addend: 0x0, symName: __ZNK4TreeIiE10TreeheightEv, symObjAddr: 0x53C, symBinAddr: 0x100000AC8, symSize: 0x28 }
  - { offsetInCU: 0xA44E, offset: 0xA44E, size: 0x8, addend: 0x0, symName: __ZNK4TreeIiE8TreeleafEv, symObjAddr: 0x564, symBinAddr: 0x100000AF0, symSize: 0x28 }
  - { offsetInCU: 0xA473, offset: 0xA473, size: 0x8, addend: 0x0, symName: __ZN4TreeIiED1Ev, symObjAddr: 0x58C, symBinAddr: 0x100000B18, symSize: 0x2C }
  - { offsetInCU: 0xA49E, offset: 0xA49E, size: 0x8, addend: 0x0, symName: __ZN4TreeIiED2Ev, symObjAddr: 0x5B8, symBinAddr: 0x100000B44, symSize: 0x2C }
  - { offsetInCU: 0xA4C9, offset: 0xA4C9, size: 0x8, addend: 0x0, symName: __ZNSt3__16vectorI8TreeNodeIiENS_9allocatorIS2_EEED1B7v160006Ev, symObjAddr: 0x5E4, symBinAddr: 0x100000B70, symSize: 0x2C }
  - { offsetInCU: 0xA4F2, offset: 0xA4F2, size: 0x8, addend: 0x0, symName: __ZNSt3__16vectorI8TreeNodeIiENS_9allocatorIS2_EEED2B7v160006Ev, symObjAddr: 0x610, symBinAddr: 0x100000B9C, symSize: 0x44 }
  - { offsetInCU: 0xA51B, offset: 0xA51B, size: 0x8, addend: 0x0, symName: __ZNSt3__16vectorI8TreeNodeIiENS_9allocatorIS2_EEE16__destroy_vectorC1ERS5_, symObjAddr: 0x654, symBinAddr: 0x100000BE0, symSize: 0x34 }
  - { offsetInCU: 0xA553, offset: 0xA553, size: 0x8, addend: 0x0, symName: __ZNSt3__16vectorI8TreeNodeIiENS_9allocatorIS2_EEE16__destroy_vectorclB7v160006Ev, symObjAddr: 0x694, symBinAddr: 0x100000C20, symSize: 0x9C }
  - { offsetInCU: 0xA578, offset: 0xA578, size: 0x8, addend: 0x0, symName: __ZNSt3__16vectorI8TreeNodeIiENS_9allocatorIS2_EEE16__destroy_vectorC2ERS5_, symObjAddr: 0x730, symBinAddr: 0x100000CBC, symSize: 0x20 }
  - { offsetInCU: 0xA5B0, offset: 0xA5B0, size: 0x8, addend: 0x0, symName: __ZNKSt3__16vectorI8TreeNodeIiENS_9allocatorIS2_EEE17__annotate_deleteB7v160006Ev, symObjAddr: 0x750, symBinAddr: 0x100000CDC, symSize: 0xB8 }
  - { offsetInCU: 0xA5D5, offset: 0xA5D5, size: 0x8, addend: 0x0, symName: __ZNSt3__16vectorI8TreeNodeIiENS_9allocatorIS2_EEE7__clearB7v160006Ev, symObjAddr: 0x818, symBinAddr: 0x100000DA4, symSize: 0x28 }
  - { offsetInCU: 0xA5FA, offset: 0xA5FA, size: 0x8, addend: 0x0, symName: __ZNSt3__116allocator_traitsINS_9allocatorI8TreeNodeIiEEEE10deallocateB7v160006ERS4_PS3_m, symObjAddr: 0x840, symBinAddr: 0x100000DCC, symSize: 0x34 }
  - { offsetInCU: 0xA63C, offset: 0xA63C, size: 0x8, addend: 0x0, symName: __ZNSt3__16vectorI8TreeNodeIiENS_9allocatorIS2_EEE7__allocB7v160006Ev, symObjAddr: 0x874, symBinAddr: 0x100000E00, symSize: 0x28 }
  - { offsetInCU: 0xA661, offset: 0xA661, size: 0x8, addend: 0x0, symName: __ZNKSt3__16vectorI8TreeNodeIiENS_9allocatorIS2_EEE8capacityB7v160006Ev, symObjAddr: 0x89C, symBinAddr: 0x100000E28, symSize: 0x40 }
  - { offsetInCU: 0xA686, offset: 0xA686, size: 0x8, addend: 0x0, symName: __ZNKSt3__16vectorI8TreeNodeIiENS_9allocatorIS2_EEE31__annotate_contiguous_containerB7v160006EPKvS7_S7_S7_, symObjAddr: 0x8DC, symBinAddr: 0x100000E68, symSize: 0x20 }
  - { offsetInCU: 0xA6D7, offset: 0xA6D7, size: 0x8, addend: 0x0, symName: __ZNKSt3__16vectorI8TreeNodeIiENS_9allocatorIS2_EEE4dataB7v160006Ev, symObjAddr: 0x8FC, symBinAddr: 0x100000E88, symSize: 0x28 }
  - { offsetInCU: 0xA6FC, offset: 0xA6FC, size: 0x8, addend: 0x0, symName: __ZNKSt3__16vectorI8TreeNodeIiENS_9allocatorIS2_EEE4sizeB7v160006Ev, symObjAddr: 0x924, symBinAddr: 0x100000EB0, symSize: 0x28 }
  - { offsetInCU: 0xA721, offset: 0xA721, size: 0x8, addend: 0x0, symName: __ZNSt3__16vectorI8TreeNodeIiENS_9allocatorIS2_EEE22__base_destruct_at_endB7v160006EPS2_, symObjAddr: 0x960, symBinAddr: 0x100000EEC, symSize: 0x8C }
  - { offsetInCU: 0xA764, offset: 0xA764, size: 0x8, addend: 0x0, symName: __ZNSt3__116allocator_traitsINS_9allocatorI8TreeNodeIiEEEE7destroyB7v160006IS3_vEEvRS4_PT_, symObjAddr: 0x9EC, symBinAddr: 0x100000F78, symSize: 0x2C }
  - { offsetInCU: 0xA7A1, offset: 0xA7A1, size: 0x8, addend: 0x0, symName: __ZNSt3__19allocatorI8TreeNodeIiEE7destroyB7v160006EPS2_, symObjAddr: 0xA18, symBinAddr: 0x100000FA4, symSize: 0x14 }
  - { offsetInCU: 0xA7D4, offset: 0xA7D4, size: 0x8, addend: 0x0, symName: __ZNSt3__19allocatorI8TreeNodeIiEE10deallocateB7v160006EPS2_m, symObjAddr: 0xA2C, symBinAddr: 0x100000FB8, symSize: 0x40 }
  - { offsetInCU: 0xA815, offset: 0xA815, size: 0x8, addend: 0x0, symName: __ZNSt3__117__compressed_pairIP8TreeNodeIiENS_9allocatorIS2_EEE6secondB7v160006Ev, symObjAddr: 0xAE8, symBinAddr: 0x100001074, symSize: 0x24 }
  - { offsetInCU: 0xA83A, offset: 0xA83A, size: 0x8, addend: 0x0, symName: __ZNSt3__122__compressed_pair_elemINS_9allocatorI8TreeNodeIiEEELi1ELb1EE5__getB7v160006Ev, symObjAddr: 0xB0C, symBinAddr: 0x100001098, symSize: 0x14 }
  - { offsetInCU: 0xA85F, offset: 0xA85F, size: 0x8, addend: 0x0, symName: __ZNKSt3__16vectorI8TreeNodeIiENS_9allocatorIS2_EEE9__end_capB7v160006Ev, symObjAddr: 0xB20, symBinAddr: 0x1000010AC, symSize: 0x28 }
  - { offsetInCU: 0xA884, offset: 0xA884, size: 0x8, addend: 0x0, symName: __ZNKSt3__117__compressed_pairIP8TreeNodeIiENS_9allocatorIS2_EEE5firstB7v160006Ev, symObjAddr: 0xB48, symBinAddr: 0x1000010D4, symSize: 0x24 }
  - { offsetInCU: 0xA8A9, offset: 0xA8A9, size: 0x8, addend: 0x0, symName: __ZNKSt3__122__compressed_pair_elemIP8TreeNodeIiELi0ELb0EE5__getB7v160006Ev, symObjAddr: 0xB6C, symBinAddr: 0x1000010F8, symSize: 0x14 }
  - { offsetInCU: 0xA8CE, offset: 0xA8CE, size: 0x8, addend: 0x0, symName: __ZN4TreeIiEC2Ev, symObjAddr: 0xB80, symBinAddr: 0x10000110C, symSize: 0x2C }
  - { offsetInCU: 0xA8F7, offset: 0xA8F7, size: 0x8, addend: 0x0, symName: __ZNSt3__16vectorI8TreeNodeIiENS_9allocatorIS2_EEEC1B7v160006Ev, symObjAddr: 0xBAC, symBinAddr: 0x100001138, symSize: 0x2C }
  - { offsetInCU: 0xA920, offset: 0xA920, size: 0x8, addend: 0x0, symName: __ZNSt3__16vectorI8TreeNodeIiENS_9allocatorIS2_EEEC2B7v160006Ev, symObjAddr: 0xBD8, symBinAddr: 0x100001164, symSize: 0x58 }
  - { offsetInCU: 0xA953, offset: 0xA953, size: 0x8, addend: 0x0, symName: __ZNSt3__117__compressed_pairIP8TreeNodeIiENS_9allocatorIS2_EEEC1B7v160006IDnNS_18__default_init_tagEEEOT_OT0_, symObjAddr: 0xC30, symBinAddr: 0x1000011BC, symSize: 0x3C }
  - { offsetInCU: 0xA9AA, offset: 0xA9AA, size: 0x8, addend: 0x0, symName: __ZNSt3__117__compressed_pairIP8TreeNodeIiENS_9allocatorIS2_EEEC2B7v160006IDnNS_18__default_init_tagEEEOT_OT0_, symObjAddr: 0xC7C, symBinAddr: 0x100001208, symSize: 0x40 }
  - { offsetInCU: 0xAA01, offset: 0xAA01, size: 0x8, addend: 0x0, symName: __ZNSt3__122__compressed_pair_elemIP8TreeNodeIiELi0ELb0EEC2B7v160006IDnvEEOT_, symObjAddr: 0xCBC, symBinAddr: 0x100001248, symSize: 0x1C }
  - { offsetInCU: 0xAA42, offset: 0xAA42, size: 0x8, addend: 0x0, symName: __ZNSt3__122__compressed_pair_elemINS_9allocatorI8TreeNodeIiEEELi1ELb1EEC2B7v160006ENS_18__default_init_tagE, symObjAddr: 0xCD8, symBinAddr: 0x100001264, symSize: 0x2C }
  - { offsetInCU: 0xAA76, offset: 0xAA76, size: 0x8, addend: 0x0, symName: __ZNSt3__19allocatorI8TreeNodeIiEEC2B7v160006Ev, symObjAddr: 0xD04, symBinAddr: 0x100001290, symSize: 0x2C }
  - { offsetInCU: 0xAA9F, offset: 0xAA9F, size: 0x8, addend: 0x0, symName: __ZNSt3__116__non_trivial_ifILb1ENS_9allocatorI8TreeNodeIiEEEEC2B7v160006Ev, symObjAddr: 0xD30, symBinAddr: 0x1000012BC, symSize: 0x14 }
  - { offsetInCU: 0xAAC8, offset: 0xAAC8, size: 0x8, addend: 0x0, symName: __ZNKSt3__16vectorI8TreeNodeIiENS_9allocatorIS2_EEE5emptyB7v160006Ev, symObjAddr: 0xD44, symBinAddr: 0x1000012D0, symSize: 0x28 }
  - { offsetInCU: 0xAAEC, offset: 0xAAEC, size: 0x8, addend: 0x0, symName: __ZNSt3__16vectorI8TreeNodeIiENS_9allocatorIS2_EEE9push_backB7v160006EOS2_, symObjAddr: 0xD6C, symBinAddr: 0x1000012F8, symSize: 0x6C }
  - { offsetInCU: 0xAB22, offset: 0xAB22, size: 0x8, addend: 0x0, symName: __ZN8TreeNodeIiEC1Eiiii, symObjAddr: 0xDD8, symBinAddr: 0x100001364, symSize: 0x4C }
  - { offsetInCU: 0xAB83, offset: 0xAB83, size: 0x8, addend: 0x0, symName: __ZNK4TreeIiE4FindERKi, symObjAddr: 0xE24, symBinAddr: 0x1000013B0, symSize: 0xAC }
  - { offsetInCU: 0xABD3, offset: 0xABD3, size: 0x8, addend: 0x0, symName: __ZNSt3__16vectorI8TreeNodeIiENS_9allocatorIS2_EEEixB7v160006Em, symObjAddr: 0xED0, symBinAddr: 0x10000145C, symSize: 0x24 }
  - { offsetInCU: 0xAC09, offset: 0xAC09, size: 0x8, addend: 0x0, symName: __ZNSt3__16vectorI8TreeNodeIiENS_9allocatorIS2_EEE9__end_capB7v160006Ev, symObjAddr: 0xEF4, symBinAddr: 0x100001480, symSize: 0x28 }
  - { offsetInCU: 0xAC33, offset: 0xAC33, size: 0x8, addend: 0x0, symName: __ZNSt3__16vectorI8TreeNodeIiENS_9allocatorIS2_EEE22__construct_one_at_endB7v160006IJS2_EEEvDpOT_, symObjAddr: 0xF1C, symBinAddr: 0x1000014A8, symSize: 0x90 }
  - { offsetInCU: 0xAC80, offset: 0xAC80, size: 0x8, addend: 0x0, symName: __ZNSt3__16vectorI8TreeNodeIiENS_9allocatorIS2_EEE21__push_back_slow_pathIS2_EEvOT_, symObjAddr: 0xFAC, symBinAddr: 0x100001538, symSize: 0xD8 }
  - { offsetInCU: 0xACDD, offset: 0xACDD, size: 0x8, addend: 0x0, symName: __ZNSt3__117__compressed_pairIP8TreeNodeIiENS_9allocatorIS2_EEE5firstB7v160006Ev, symObjAddr: 0x1084, symBinAddr: 0x100001610, symSize: 0x24 }
  - { offsetInCU: 0xAD02, offset: 0xAD02, size: 0x8, addend: 0x0, symName: __ZNSt3__122__compressed_pair_elemIP8TreeNodeIiELi0ELb0EE5__getB7v160006Ev, symObjAddr: 0x10A8, symBinAddr: 0x100001634, symSize: 0x14 }
  - { offsetInCU: 0xAD40, offset: 0xAD40, size: 0x8, addend: 0x0, symName: __ZNSt3__16vectorI8TreeNodeIiENS_9allocatorIS2_EEE21_ConstructTransactionC1B7v160006ERS5_m, symObjAddr: 0x10BC, symBinAddr: 0x100001648, symSize: 0x3C }
  - { offsetInCU: 0xAD87, offset: 0xAD87, size: 0x8, addend: 0x0, symName: __ZNSt3__116allocator_traitsINS_9allocatorI8TreeNodeIiEEEE9constructB7v160006IS3_JS3_EvEEvRS4_PT_DpOT0_, symObjAddr: 0x10F8, symBinAddr: 0x100001684, symSize: 0x34 }
  - { offsetInCU: 0xADDE, offset: 0xADDE, size: 0x8, addend: 0x0, symName: __ZNSt3__16vectorI8TreeNodeIiENS_9allocatorIS2_EEE21_ConstructTransactionD1B7v160006Ev, symObjAddr: 0x112C, symBinAddr: 0x1000016B8, symSize: 0x2C }
  - { offsetInCU: 0xAE07, offset: 0xAE07, size: 0x8, addend: 0x0, symName: __ZNSt3__16vectorI8TreeNodeIiENS_9allocatorIS2_EEE21_ConstructTransactionC2B7v160006ERS5_m, symObjAddr: 0x1158, symBinAddr: 0x1000016E4, symSize: 0x44 }
  - { offsetInCU: 0xAE4E, offset: 0xAE4E, size: 0x8, addend: 0x0, symName: __ZNSt3__19allocatorI8TreeNodeIiEE9constructB7v160006IS2_JS2_EEEvPT_DpOT0_, symObjAddr: 0x119C, symBinAddr: 0x100001728, symSize: 0x28 }
  - { offsetInCU: 0xAEA3, offset: 0xAEA3, size: 0x8, addend: 0x0, symName: __ZNSt3__16vectorI8TreeNodeIiENS_9allocatorIS2_EEE21_ConstructTransactionD2B7v160006Ev, symObjAddr: 0x11C4, symBinAddr: 0x100001750, symSize: 0x20 }
  - { offsetInCU: 0xAECB, offset: 0xAECB, size: 0x8, addend: 0x0, symName: __ZNKSt3__16vectorI8TreeNodeIiENS_9allocatorIS2_EEE11__recommendB7v160006Em, symObjAddr: 0x11E4, symBinAddr: 0x100001770, symSize: 0xB4 }
  - { offsetInCU: 0xAF1F, offset: 0xAF1F, size: 0x8, addend: 0x0, symName: __ZNSt3__114__split_bufferI8TreeNodeIiERNS_9allocatorIS2_EEEC1EmmS5_, symObjAddr: 0x1298, symBinAddr: 0x100001824, symSize: 0x44 }
  - { offsetInCU: 0xAF74, offset: 0xAF74, size: 0x8, addend: 0x0, symName: __ZNSt3__114__split_bufferI8TreeNodeIiERNS_9allocatorIS2_EEED1Ev, symObjAddr: 0x13F4, symBinAddr: 0x100001980, symSize: 0x2C }
  - { offsetInCU: 0xAF9E, offset: 0xAF9E, size: 0x8, addend: 0x0, symName: __ZNKSt3__16vectorI8TreeNodeIiENS_9allocatorIS2_EEE8max_sizeEv, symObjAddr: 0x1420, symBinAddr: 0x1000019AC, symSize: 0x60 }
  - { offsetInCU: 0xAFC5, offset: 0xAFC5, size: 0x8, addend: 0x0, symName: __ZNKSt3__16vectorI8TreeNodeIiENS_9allocatorIS2_EEE20__throw_length_errorB7v160006Ev, symObjAddr: 0x1480, symBinAddr: 0x100001A0C, symSize: 0x1C }
  - { offsetInCU: 0xAFF4, offset: 0xAFF4, size: 0x8, addend: 0x0, symName: __ZNSt3__116allocator_traitsINS_9allocatorI8TreeNodeIiEEEE8max_sizeB7v160006IS4_vEEmRKS4_, symObjAddr: 0x14F4, symBinAddr: 0x100001A80, symSize: 0x24 }
  - { offsetInCU: 0xB022, offset: 0xB022, size: 0x8, addend: 0x0, symName: __ZNKSt3__16vectorI8TreeNodeIiENS_9allocatorIS2_EEE7__allocB7v160006Ev, symObjAddr: 0x1518, symBinAddr: 0x100001AA4, symSize: 0x28 }
  - { offsetInCU: 0xB047, offset: 0xB047, size: 0x8, addend: 0x0, symName: __ZNSt3__114numeric_limitsIlE3maxB7v160006Ev, symObjAddr: 0x1540, symBinAddr: 0x100001ACC, symSize: 0x14 }
  - { offsetInCU: 0xB06F, offset: 0xB06F, size: 0x8, addend: 0x0, symName: __ZNKSt3__16__lessImmEclB7v160006ERKmS3_, symObjAddr: 0x15A8, symBinAddr: 0x100001B34, symSize: 0x34 }
  - { offsetInCU: 0xB0B0, offset: 0xB0B0, size: 0x8, addend: 0x0, symName: __ZNKSt3__19allocatorI8TreeNodeIiEE8max_sizeB7v160006Ev, symObjAddr: 0x15DC, symBinAddr: 0x100001B68, symSize: 0x14 }
  - { offsetInCU: 0xB0D5, offset: 0xB0D5, size: 0x8, addend: 0x0, symName: __ZNKSt3__117__compressed_pairIP8TreeNodeIiENS_9allocatorIS2_EEE6secondB7v160006Ev, symObjAddr: 0x15F0, symBinAddr: 0x100001B7C, symSize: 0x24 }
  - { offsetInCU: 0xB0FA, offset: 0xB0FA, size: 0x8, addend: 0x0, symName: __ZNKSt3__122__compressed_pair_elemINS_9allocatorI8TreeNodeIiEEELi1ELb1EE5__getB7v160006Ev, symObjAddr: 0x1614, symBinAddr: 0x100001BA0, symSize: 0x14 }
  - { offsetInCU: 0xB11F, offset: 0xB11F, size: 0x8, addend: 0x0, symName: __ZNSt3__123__libcpp_numeric_limitsIlLb1EE3maxB7v160006Ev, symObjAddr: 0x1628, symBinAddr: 0x100001BB4, symSize: 0x8 }
  - { offsetInCU: 0xB133, offset: 0xB133, size: 0x8, addend: 0x0, symName: __ZNSt12length_errorC1B7v160006EPKc, symObjAddr: 0x1694, symBinAddr: 0x100001C20, symSize: 0x34 }
  - { offsetInCU: 0xB16A, offset: 0xB16A, size: 0x8, addend: 0x0, symName: __ZNSt12length_errorC2B7v160006EPKc, symObjAddr: 0x16C8, symBinAddr: 0x100001C54, symSize: 0x4C }
  - { offsetInCU: 0xB1A1, offset: 0xB1A1, size: 0x8, addend: 0x0, symName: __ZNSt3__114__split_bufferI8TreeNodeIiERNS_9allocatorIS2_EEEC2EmmS5_, symObjAddr: 0x1768, symBinAddr: 0x100001CF4, symSize: 0xD4 }
  - { offsetInCU: 0xB214, offset: 0xB214, size: 0x8, addend: 0x0, symName: __ZNSt3__117__compressed_pairIP8TreeNodeIiERNS_9allocatorIS2_EEEC1B7v160006IDnS6_EEOT_OT0_, symObjAddr: 0x183C, symBinAddr: 0x100001DC8, symSize: 0x3C }
  - { offsetInCU: 0xB26B, offset: 0xB26B, size: 0x8, addend: 0x0, symName: __ZNSt3__114__split_bufferI8TreeNodeIiERNS_9allocatorIS2_EEE7__allocB7v160006Ev, symObjAddr: 0x18B8, symBinAddr: 0x100001E44, symSize: 0x28 }
  - { offsetInCU: 0xB290, offset: 0xB290, size: 0x8, addend: 0x0, symName: __ZNSt3__114__split_bufferI8TreeNodeIiERNS_9allocatorIS2_EEE9__end_capB7v160006Ev, symObjAddr: 0x18E0, symBinAddr: 0x100001E6C, symSize: 0x28 }
  - { offsetInCU: 0xB2B5, offset: 0xB2B5, size: 0x8, addend: 0x0, symName: __ZNSt3__117__compressed_pairIP8TreeNodeIiERNS_9allocatorIS2_EEEC2B7v160006IDnS6_EEOT_OT0_, symObjAddr: 0x1908, symBinAddr: 0x100001E94, symSize: 0x48 }
  - { offsetInCU: 0xB30C, offset: 0xB30C, size: 0x8, addend: 0x0, symName: __ZNSt3__122__compressed_pair_elemIRNS_9allocatorI8TreeNodeIiEEELi1ELb0EEC2B7v160006IS5_vEEOT_, symObjAddr: 0x1950, symBinAddr: 0x100001EDC, symSize: 0x20 }
  - { offsetInCU: 0xB34D, offset: 0xB34D, size: 0x8, addend: 0x0, symName: __ZNSt3__19allocatorI8TreeNodeIiEE8allocateB7v160006Em, symObjAddr: 0x1970, symBinAddr: 0x100001EFC, symSize: 0x58 }
  - { offsetInCU: 0xB380, offset: 0xB380, size: 0x8, addend: 0x0, symName: __ZNSt3__117__compressed_pairIP8TreeNodeIiERNS_9allocatorIS2_EEE6secondB7v160006Ev, symObjAddr: 0x1A48, symBinAddr: 0x100001FD4, symSize: 0x28 }
  - { offsetInCU: 0xB3A5, offset: 0xB3A5, size: 0x8, addend: 0x0, symName: __ZNSt3__122__compressed_pair_elemIRNS_9allocatorI8TreeNodeIiEEELi1ELb0EE5__getB7v160006Ev, symObjAddr: 0x1A70, symBinAddr: 0x100001FFC, symSize: 0x18 }
  - { offsetInCU: 0xB3CA, offset: 0xB3CA, size: 0x8, addend: 0x0, symName: __ZNSt3__117__compressed_pairIP8TreeNodeIiERNS_9allocatorIS2_EEE5firstB7v160006Ev, symObjAddr: 0x1A88, symBinAddr: 0x100002014, symSize: 0x24 }
  - { offsetInCU: 0xB3EF, offset: 0xB3EF, size: 0x8, addend: 0x0, symName: __ZNSt3__116reverse_iteratorIP8TreeNodeIiEEC1B7v160006ES3_, symObjAddr: 0x1B24, symBinAddr: 0x1000020B0, symSize: 0x34 }
  - { offsetInCU: 0xB426, offset: 0xB426, size: 0x8, addend: 0x0, symName: __ZNKSt3__116reverse_iteratorIP8TreeNodeIiEE4baseB7v160006Ev, symObjAddr: 0x1B58, symBinAddr: 0x1000020E4, symSize: 0x18 }
  - { offsetInCU: 0xB44B, offset: 0xB44B, size: 0x8, addend: 0x0, symName: __ZNKSt3__16vectorI8TreeNodeIiENS_9allocatorIS2_EEE14__annotate_newB7v160006Em, symObjAddr: 0x1BAC, symBinAddr: 0x100002138, symSize: 0xAC }
  - { offsetInCU: 0xB4A2, offset: 0xB4A2, size: 0x8, addend: 0x0, symName: __ZNKSt3__111__move_loopINS_17_ClassicAlgPolicyEEclB7v160006INS_16reverse_iteratorIP8TreeNodeIiEEES8_S8_EENS_4pairIT_T1_EESA_T0_SB_, symObjAddr: 0x1F58, symBinAddr: 0x1000024E4, symSize: 0xA0 }
  - { offsetInCU: 0xB50C, offset: 0xB50C, size: 0x8, addend: 0x0, symName: __ZNSt3__18_IterOpsINS_17_ClassicAlgPolicyEE11__iter_moveB7v160006IRNS_16reverse_iteratorIP8TreeNodeIiEEEEENS_9enable_ifIXsr12is_referenceIDTdeclsr3stdE7declvalIRT_EEEEE5valueEDTclsr3stdE4movedeclsr3stdE7declvalISC_EEEEE4typeEOSB_, symObjAddr: 0x218C, symBinAddr: 0x100002718, symSize: 0x28 }
  - { offsetInCU: 0xB538, offset: 0xB538, size: 0x8, addend: 0x0, symName: __ZNKSt3__116reverse_iteratorIP8TreeNodeIiEEdeB7v160006Ev, symObjAddr: 0x21B4, symBinAddr: 0x100002740, symSize: 0x28 }
  - { offsetInCU: 0xB56B, offset: 0xB56B, size: 0x8, addend: 0x0, symName: __ZNSt3__116reverse_iteratorIP8TreeNodeIiEEppB7v160006Ev, symObjAddr: 0x21DC, symBinAddr: 0x100002768, symSize: 0x20 }
  - { offsetInCU: 0xB590, offset: 0xB590, size: 0x8, addend: 0x0, symName: __ZNSt3__18_IterOpsINS_17_ClassicAlgPolicyEE25__validate_iter_referenceB7v160006IRNS_16reverse_iteratorIP8TreeNodeIiEEEEEvv, symObjAddr: 0x21FC, symBinAddr: 0x100002788, symSize: 0x4 }
  - { offsetInCU: 0xB5AE, offset: 0xB5AE, size: 0x8, addend: 0x0, symName: __ZNSt3__118__unwrap_iter_implINS_16reverse_iteratorIP8TreeNodeIiEEELb0EE8__unwrapB7v160006ES5_, symObjAddr: 0x2200, symBinAddr: 0x10000278C, symSize: 0x24 }
  - { offsetInCU: 0xB5D6, offset: 0xB5D6, size: 0x8, addend: 0x0, symName: __ZNSt3__14pairINS_16reverse_iteratorIP8TreeNodeIiEEES5_EC1B7v160006IS5_S5_LPv0EEEOT_OT0_, symObjAddr: 0x2224, symBinAddr: 0x1000027B0, symSize: 0x3C }
  - { offsetInCU: 0xB633, offset: 0xB633, size: 0x8, addend: 0x0, symName: __ZNSt3__14pairINS_16reverse_iteratorIP8TreeNodeIiEEES5_EC2B7v160006IS5_S5_LPv0EEEOT_OT0_, symObjAddr: 0x2260, symBinAddr: 0x1000027EC, symSize: 0x34 }
  - { offsetInCU: 0xB690, offset: 0xB690, size: 0x8, addend: 0x0, symName: __ZNSt3__118__unwrap_iter_implINS_16reverse_iteratorIP8TreeNodeIiEEELb0EE8__rewrapB7v160006ES5_S5_, symObjAddr: 0x2294, symBinAddr: 0x100002820, symSize: 0x2C }
  - { offsetInCU: 0xB6BE, offset: 0xB6BE, size: 0x8, addend: 0x0, symName: __ZNSt3__116reverse_iteratorIP8TreeNodeIiEEC2B7v160006ES3_, symObjAddr: 0x22C0, symBinAddr: 0x10000284C, symSize: 0x28 }
  - { offsetInCU: 0xB6F5, offset: 0xB6F5, size: 0x8, addend: 0x0, symName: __ZNSt3__114__split_bufferI8TreeNodeIiERNS_9allocatorIS2_EEED2Ev, symObjAddr: 0x22E8, symBinAddr: 0x100002874, symSize: 0x8C }
  - { offsetInCU: 0xB720, offset: 0xB720, size: 0x8, addend: 0x0, symName: __ZNSt3__114__split_bufferI8TreeNodeIiERNS_9allocatorIS2_EEE5clearB7v160006Ev, symObjAddr: 0x2374, symBinAddr: 0x100002900, symSize: 0x28 }
  - { offsetInCU: 0xB745, offset: 0xB745, size: 0x8, addend: 0x0, symName: __ZNKSt3__114__split_bufferI8TreeNodeIiERNS_9allocatorIS2_EEE8capacityB7v160006Ev, symObjAddr: 0x239C, symBinAddr: 0x100002928, symSize: 0x40 }
  - { offsetInCU: 0xB76A, offset: 0xB76A, size: 0x8, addend: 0x0, symName: __ZNSt3__114__split_bufferI8TreeNodeIiERNS_9allocatorIS2_EEE17__destruct_at_endB7v160006EPS2_, symObjAddr: 0x23DC, symBinAddr: 0x100002968, symSize: 0x2C }
  - { offsetInCU: 0xB79C, offset: 0xB79C, size: 0x8, addend: 0x0, symName: __ZNSt3__114__split_bufferI8TreeNodeIiERNS_9allocatorIS2_EEE17__destruct_at_endB7v160006EPS2_NS_17integral_constantIbLb0EEE, symObjAddr: 0x2408, symBinAddr: 0x100002994, symSize: 0x80 }
  - { offsetInCU: 0xB7DC, offset: 0xB7DC, size: 0x8, addend: 0x0, symName: __ZNKSt3__114__split_bufferI8TreeNodeIiERNS_9allocatorIS2_EEE9__end_capB7v160006Ev, symObjAddr: 0x2488, symBinAddr: 0x100002A14, symSize: 0x28 }
  - { offsetInCU: 0xB801, offset: 0xB801, size: 0x8, addend: 0x0, symName: __ZNKSt3__117__compressed_pairIP8TreeNodeIiERNS_9allocatorIS2_EEE5firstB7v160006Ev, symObjAddr: 0x24B0, symBinAddr: 0x100002A3C, symSize: 0x24 }
  - { offsetInCU: 0xB826, offset: 0xB826, size: 0x8, addend: 0x0, symName: __ZN8TreeNodeIiEC2Eiiii, symObjAddr: 0x24D4, symBinAddr: 0x100002A60, symSize: 0x44 }
  - { offsetInCU: 0xB887, offset: 0xB887, size: 0x8, addend: 0x0, symName: __ZNKSt3__16vectorI8TreeNodeIiENS_9allocatorIS2_EEEixB7v160006Em, symObjAddr: 0x2518, symBinAddr: 0x100002AA4, symSize: 0x24 }
  - { offsetInCU: 0xB8BD, offset: 0xB8BD, size: 0x8, addend: 0x0, symName: __ZNSt3__111char_traitsIcE6lengthEPKc, symObjAddr: 0x2728, symBinAddr: 0x100002CB4, symSize: 0x34 }
  - { offsetInCU: 0xB8FE, offset: 0xB8FE, size: 0x8, addend: 0x0, symName: __ZNKSt3__113basic_ostreamIcNS_11char_traitsIcEEE6sentrycvbB7v160006Ev, symObjAddr: 0x275C, symBinAddr: 0x100002CE8, symSize: 0x1C }
  - { offsetInCU: 0xB923, offset: 0xB923, size: 0x8, addend: 0x0, symName: __ZNSt3__119ostreambuf_iteratorIcNS_11char_traitsIcEEEC1B7v160006ERNS_13basic_ostreamIcS2_EE, symObjAddr: 0x29B8, symBinAddr: 0x100002F44, symSize: 0x34 }
  - { offsetInCU: 0xB95A, offset: 0xB95A, size: 0x8, addend: 0x0, symName: __ZNKSt3__18ios_base5flagsB7v160006Ev, symObjAddr: 0x29EC, symBinAddr: 0x100002F78, symSize: 0x18 }
  - { offsetInCU: 0xB980, offset: 0xB980, size: 0x8, addend: 0x0, symName: __ZNKSt3__19basic_iosIcNS_11char_traitsIcEEE4fillB7v160006Ev, symObjAddr: 0x2A04, symBinAddr: 0x100002F90, symSize: 0x64 }
  - { offsetInCU: 0xB9A7, offset: 0xB9A7, size: 0x8, addend: 0x0, symName: __ZNKSt3__119ostreambuf_iteratorIcNS_11char_traitsIcEEE6failedB7v160006Ev, symObjAddr: 0x2A68, symBinAddr: 0x100002FF4, symSize: 0x24 }
  - { offsetInCU: 0xB9CC, offset: 0xB9CC, size: 0x8, addend: 0x0, symName: __ZNSt3__19basic_iosIcNS_11char_traitsIcEEE8setstateB7v160006Ej, symObjAddr: 0x2A8C, symBinAddr: 0x100003018, symSize: 0x2C }
  - { offsetInCU: 0xBA00, offset: 0xBA00, size: 0x8, addend: 0x0, symName: __ZNKSt3__18ios_base5widthB7v160006Ev, symObjAddr: 0x2AB8, symBinAddr: 0x100003044, symSize: 0x18 }
  - { offsetInCU: 0xBA27, offset: 0xBA27, size: 0x8, addend: 0x0, symName: __ZNSt3__115basic_streambufIcNS_11char_traitsIcEEE5sputnB7v160006EPKcl, symObjAddr: 0x2AD0, symBinAddr: 0x10000305C, symSize: 0x3C }
  - { offsetInCU: 0xBA68, offset: 0xBA68, size: 0x8, addend: 0x0, symName: __ZNSt3__112basic_stringIcNS_11char_traitsIcEENS_9allocatorIcEEEC1B7v160006Emc, symObjAddr: 0x2B0C, symBinAddr: 0x100003098, symSize: 0x3C }
  - { offsetInCU: 0xBAAF, offset: 0xBAAF, size: 0x8, addend: 0x0, symName: __ZNKSt3__112basic_stringIcNS_11char_traitsIcEENS_9allocatorIcEEE4dataB7v160006Ev, symObjAddr: 0x2B48, symBinAddr: 0x1000030D4, symSize: 0x28 }
  - { offsetInCU: 0xBAD4, offset: 0xBAD4, size: 0x8, addend: 0x0, symName: __ZNSt3__18ios_base5widthB7v160006El, symObjAddr: 0x2B70, symBinAddr: 0x1000030FC, symSize: 0x2C }
  - { offsetInCU: 0xBB19, offset: 0xBB19, size: 0x8, addend: 0x0, symName: __ZNSt3__112basic_stringIcNS_11char_traitsIcEENS_9allocatorIcEEEC2B7v160006Emc, symObjAddr: 0x2B9C, symBinAddr: 0x100003128, symSize: 0x54 }
  - { offsetInCU: 0xBB60, offset: 0xBB60, size: 0x8, addend: 0x0, symName: __ZNSt3__117__compressed_pairINS_12basic_stringIcNS_11char_traitsIcEENS_9allocatorIcEEE5__repES5_EC1B7v160006INS_18__default_init_tagESA_EEOT_OT0_, symObjAddr: 0x2BF0, symBinAddr: 0x10000317C, symSize: 0x3C }
  - { offsetInCU: 0xBBB7, offset: 0xBBB7, size: 0x8, addend: 0x0, symName: __ZNSt3__117__compressed_pairINS_12basic_stringIcNS_11char_traitsIcEENS_9allocatorIcEEE5__repES5_EC2B7v160006INS_18__default_init_tagESA_EEOT_OT0_, symObjAddr: 0x2C3C, symBinAddr: 0x1000031C8, symSize: 0x3C }
  - { offsetInCU: 0xBC0E, offset: 0xBC0E, size: 0x8, addend: 0x0, symName: __ZNSt3__122__compressed_pair_elemINS_12basic_stringIcNS_11char_traitsIcEENS_9allocatorIcEEE5__repELi0ELb0EEC2B7v160006ENS_18__default_init_tagE, symObjAddr: 0x2C78, symBinAddr: 0x100003204, symSize: 0x14 }
  - { offsetInCU: 0xBC42, offset: 0xBC42, size: 0x8, addend: 0x0, symName: __ZNSt3__122__compressed_pair_elemINS_9allocatorIcEELi1ELb1EEC2B7v160006ENS_18__default_init_tagE, symObjAddr: 0x2C8C, symBinAddr: 0x100003218, symSize: 0x2C }
  - { offsetInCU: 0xBC76, offset: 0xBC76, size: 0x8, addend: 0x0, symName: __ZNSt3__19allocatorIcEC2B7v160006Ev, symObjAddr: 0x2CB8, symBinAddr: 0x100003244, symSize: 0x2C }
  - { offsetInCU: 0xBC9F, offset: 0xBC9F, size: 0x8, addend: 0x0, symName: __ZNSt3__116__non_trivial_ifILb1ENS_9allocatorIcEEEC2B7v160006Ev, symObjAddr: 0x2CE4, symBinAddr: 0x100003270, symSize: 0x14 }
  - { offsetInCU: 0xBCC8, offset: 0xBCC8, size: 0x8, addend: 0x0, symName: __ZNKSt3__112basic_stringIcNS_11char_traitsIcEENS_9allocatorIcEEE13__get_pointerB7v160006Ev, symObjAddr: 0x2D0C, symBinAddr: 0x100003298, symSize: 0x54 }
  - { offsetInCU: 0xBCED, offset: 0xBCED, size: 0x8, addend: 0x0, symName: __ZNKSt3__112basic_stringIcNS_11char_traitsIcEENS_9allocatorIcEEE9__is_longB7v160006Ev, symObjAddr: 0x2D60, symBinAddr: 0x1000032EC, symSize: 0x38 }
  - { offsetInCU: 0xBD12, offset: 0xBD12, size: 0x8, addend: 0x0, symName: __ZNKSt3__112basic_stringIcNS_11char_traitsIcEENS_9allocatorIcEEE18__get_long_pointerB7v160006Ev, symObjAddr: 0x2D98, symBinAddr: 0x100003324, symSize: 0x28 }
  - { offsetInCU: 0xBD37, offset: 0xBD37, size: 0x8, addend: 0x0, symName: __ZNKSt3__112basic_stringIcNS_11char_traitsIcEENS_9allocatorIcEEE19__get_short_pointerB7v160006Ev, symObjAddr: 0x2DC0, symBinAddr: 0x10000334C, symSize: 0x28 }
  - { offsetInCU: 0xBD5C, offset: 0xBD5C, size: 0x8, addend: 0x0, symName: __ZNKSt3__117__compressed_pairINS_12basic_stringIcNS_11char_traitsIcEENS_9allocatorIcEEE5__repES5_E5firstB7v160006Ev, symObjAddr: 0x2DE8, symBinAddr: 0x100003374, symSize: 0x24 }
  - { offsetInCU: 0xBD81, offset: 0xBD81, size: 0x8, addend: 0x0, symName: __ZNKSt3__122__compressed_pair_elemINS_12basic_stringIcNS_11char_traitsIcEENS_9allocatorIcEEE5__repELi0ELb0EE5__getB7v160006Ev, symObjAddr: 0x2E0C, symBinAddr: 0x100003398, symSize: 0x14 }
  - { offsetInCU: 0xBDA6, offset: 0xBDA6, size: 0x8, addend: 0x0, symName: __ZNSt3__114pointer_traitsIPKcE10pointer_toB7v160006ERS1_, symObjAddr: 0x2E20, symBinAddr: 0x1000033AC, symSize: 0x14 }
  - { offsetInCU: 0xBDC9, offset: 0xBDC9, size: 0x8, addend: 0x0, symName: __ZNSt3__119ostreambuf_iteratorIcNS_11char_traitsIcEEEC2B7v160006ERNS_13basic_ostreamIcS2_EE, symObjAddr: 0x2E34, symBinAddr: 0x1000033C0, symSize: 0x54 }
  - { offsetInCU: 0xBDFF, offset: 0xBDFF, size: 0x8, addend: 0x0, symName: __ZNKSt3__19basic_iosIcNS_11char_traitsIcEEE5rdbufB7v160006Ev, symObjAddr: 0x2E88, symBinAddr: 0x100003414, symSize: 0x24 }
  - { offsetInCU: 0xBE26, offset: 0xBE26, size: 0x8, addend: 0x0, symName: __ZNKSt3__18ios_base5rdbufB7v160006Ev, symObjAddr: 0x2EAC, symBinAddr: 0x100003438, symSize: 0x18 }
  - { offsetInCU: 0xBE4B, offset: 0xBE4B, size: 0x8, addend: 0x0, symName: __ZNSt3__111char_traitsIcE11eq_int_typeEii, symObjAddr: 0x2EC4, symBinAddr: 0x100003450, symSize: 0x28 }
  - { offsetInCU: 0xBE7C, offset: 0xBE7C, size: 0x8, addend: 0x0, symName: __ZNSt3__111char_traitsIcE3eofEv, symObjAddr: 0x2EEC, symBinAddr: 0x100003478, symSize: 0x8 }
  - { offsetInCU: 0xBE8F, offset: 0xBE8F, size: 0x8, addend: 0x0, symName: __ZNKSt3__19basic_iosIcNS_11char_traitsIcEEE5widenB7v160006Ec, symObjAddr: 0x2EF4, symBinAddr: 0x100003480, symSize: 0x84 }
  - { offsetInCU: 0xBEFC, offset: 0xBEFC, size: 0x8, addend: 0x0, symName: __ZNKSt3__15ctypeIcE5widenB7v160006Ec, symObjAddr: 0x2FA4, symBinAddr: 0x100003530, symSize: 0x38 }
  - { offsetInCU: 0xBF2F, offset: 0xBF2F, size: 0x8, addend: 0x0, symName: __ZNSt3__18ios_base8setstateB7v160006Ej, symObjAddr: 0x2FDC, symBinAddr: 0x100003568, symSize: 0x34 }
  - { offsetInCU: 0xBF65, offset: 0xBF65, size: 0x8, addend: 0x0, symName: __ZNK4TreeIiE6DegreeEi, symObjAddr: 0x3034, symBinAddr: 0x1000035C0, symSize: 0x10C }
  - { offsetInCU: 0xBFDB, offset: 0xBFDB, size: 0x8, addend: 0x0, symName: __ZNKSt3__16__lessIiiEclB7v160006ERKiS3_, symObjAddr: 0x31C0, symBinAddr: 0x10000374C, symSize: 0x34 }
  - { offsetInCU: 0xC01C, offset: 0xC01C, size: 0x8, addend: 0x0, symName: __ZNK4TreeIiE5HightEi, symObjAddr: 0x31F4, symBinAddr: 0x100003780, symSize: 0x104 }
  - { offsetInCU: 0xC07A, offset: 0xC07A, size: 0x8, addend: 0x0, symName: __ZNK4TreeIiE4LeafEi, symObjAddr: 0x32F8, symBinAddr: 0x100003884, symSize: 0xF4 }
...
